

Microchip MPLAB XC8 Assembler V2.46 build 20240104201356 
                                                                                               Thu Sep 26 00:12:00 2024

Microchip MPLAB XC8 C Compiler v2.46 (Free license) build 20240104201356 Og1 
     1                           	processor	18F4620
     2                           	fnconf	rparam,??,?,0
     3                           	pagewidth 120
     4                           	opt	flic
     5                           	psect	idataCOMRAM,global,class=CODE,delta=1,noexec
     6                           	psect	idataBANK0,global,class=CODE,delta=1,noexec
     7                           	psect	cinit,global,reloc=2,class=CODE,delta=1
     8                           	psect	bssCOMRAM,global,class=COMRAM,space=1,delta=1,lowdata,noexec
     9                           	psect	dataCOMRAM,global,class=COMRAM,space=1,delta=1,lowdata,noexec
    10                           	psect	bssBANK0,global,class=BANK0,space=1,delta=1,lowdata,noexec
    11                           	psect	dataBANK0,global,class=BANK0,space=1,delta=1,lowdata,noexec
    12                           	psect	cstackCOMRAM,global,class=COMRAM,space=1,delta=1,lowdata,noexec
    13                           	psect	text0,global,reloc=2,class=CODE,delta=1
    14                           	psect	text1,global,reloc=2,class=CODE,delta=1
    15                           	psect	text2,global,reloc=2,class=CODE,delta=1
    16                           	psect	text3,global,reloc=2,class=CODE,delta=1
    17                           	psect	text4,global,reloc=2,class=CODE,delta=1
    18                           	psect	text5,global,reloc=2,class=CODE,delta=1
    19                           	psect	text6,global,reloc=2,class=CODE,delta=1
    20                           	psect	text7,global,reloc=2,class=CODE,delta=1
    21                           	psect	text8,global,reloc=2,class=CODE,delta=1
    22                           	psect	text9,global,reloc=2,class=CODE,delta=1
    23                           	psect	text10,global,reloc=2,class=CODE,delta=1
    24                           	psect	text11,global,reloc=2,class=CODE,delta=1
    25                           	psect	text12,global,reloc=2,class=CODE,delta=1
    26                           	psect	text13,global,reloc=2,class=CODE,delta=1,group=1
    27                           	psect	text14,global,reloc=2,class=CODE,delta=1,group=1
    28                           	psect	text15,global,reloc=2,class=CODE,delta=1,group=1
    29                           	psect	text16,global,reloc=2,class=CODE,delta=1,group=1
    30                           	psect	text17,global,reloc=2,class=CODE,delta=1,group=1
    31                           	psect	text18,global,reloc=2,class=CODE,delta=1
    32                           	psect	text19,global,reloc=2,class=CODE,delta=1
    33                           	psect	text20,global,reloc=2,class=CODE,delta=1
    34                           	psect	text21,global,reloc=2,class=CODE,delta=1
    35                           	psect	text22,global,reloc=2,class=CODE,delta=1
    36                           	psect	text23,global,reloc=2,class=CODE,delta=1
    37                           	psect	text24,global,reloc=2,class=CODE,delta=1
    38                           	psect	text25,global,reloc=2,class=CODE,delta=1
    39                           	psect	text26,global,reloc=2,class=CODE,delta=1
    40                           	psect	text27,global,reloc=2,class=CODE,delta=1
    41                           	psect	intcode,global,reloc=2,class=CODE,delta=1
    42                           	psect	intcode_body,global,reloc=2,class=CODE,delta=1
    43                           	psect	text29,global,reloc=2,class=CODE,delta=1
    44                           	psect	text30,global,reloc=2,class=CODE,delta=1
    45                           	psect	text31,global,reloc=2,class=CODE,delta=1
    46                           	psect	text32,global,reloc=2,class=CODE,delta=1
    47                           	psect	text33,global,reloc=2,class=CODE,delta=1
    48                           	psect	text34,global,reloc=2,class=CODE,delta=1
    49                           	psect	text35,global,reloc=2,class=CODE,delta=1
    50                           	psect	text36,global,reloc=2,class=CODE,delta=1
    51                           	psect	text37,global,reloc=2,class=CODE,delta=1
    52                           	psect	text38,global,reloc=2,class=CODE,delta=1
    53                           	psect	text39,global,reloc=2,class=CODE,delta=1
    54                           	psect	text40,global,reloc=2,class=CODE,delta=1
    55                           	psect	text41,global,reloc=2,class=CODE,delta=1
    56                           	psect	smallconst,global,reloc=2,class=SMALLCONST,delta=1,noexec
    57                           	psect	intsave_regs,global,class=BIGRAM,space=1,delta=1,noexec
    58                           	psect	rparam,global,class=COMRAM,space=1,delta=1,noexec
    59                           	psect	temp,global,ovrld,common,class=COMRAM,space=1,delta=1,lowdata
    60                           	psect	config,global,abs,ovrld,class=CONFIG,space=4,delta=1,noexec
    61   000000                     
    62                           ; Generated 17/10/2023 GMT
    63                           ; 
    64                           ; Copyright © 2023, Microchip Technology Inc. and its subsidiaries ("Microchip")
    65                           ; All rights reserved.
    66                           ; 
    67                           ; This software is developed by Microchip Technology Inc. and its subsidiaries ("Microch
      +                          ip").
    68                           ; 
    69                           ; Redistribution and use in source and binary forms, with or without modification, are
    70                           ; permitted provided that the following conditions are met:
    71                           ; 
    72                           ;     1. Redistributions of source code must retain the above copyright notice, this lis
      +                          t of
    73                           ;        conditions and the following disclaimer.
    74                           ; 
    75                           ;     2. Redistributions in binary form must reproduce the above copyright notice, this 
      +                          list
    76                           ;        of conditions and the following disclaimer in the documentation and/or other
    77                           ;        materials provided with the distribution. Publication is not required when
    78                           ;        this file is used in an embedded application.
    79                           ; 
    80                           ;     3. Microchip's name may not be used to endorse or promote products derived from th
      +                          is
    81                           ;        software without specific prior written permission.
    82                           ; 
    83                           ; THIS SOFTWARE IS PROVIDED BY MICROCHIP "AS IS" AND ANY EXPRESS OR IMPLIED WARRANTIES,
    84                           ; INCLUDING, BUT NOT LIMITED TO, THE IMPLIED WARRANTIES OF MERCHANTABILITY AND FITNESS F
      +                          OR
    85                           ; PURPOSE ARE DISCLAIMED.  IN NO EVENT SHALL MICROCHIP BE LIABLE FOR ANY DIRECT, INDIREC
      +                          T,
    86                           ; INCIDENTAL, SPECIAL, EXEMPLARY, OR CONSEQUENTIAL DAMAGES (INCLUDING BUT NOT LIMITED TO
    87                           ; PROCUREMENT OF SUBSTITUTE GOODS OR SERVICES; LOSS OF USE, DATA OR PROFITS; OR BUSINESS
    88                           ; INTERRUPTION) HOWSOEVER CAUSED AND ON ANY THEORY OF LIABILITY, WHETHER IN CONTRACT, ST
      +                          RICT
    89                           ; LIABILITY, OR TORT (INCLUDING NEGLIGENCE OR OTHERWISE) ARISING IN ANY WAY OUT OF THE U
      +                          SE OF
    90                           ; THIS SOFTWARE, EVEN IF ADVISED OF THE POSSIBILITY OF SUCH DAMAGE.
    91                           ; 
    92                           ; 
    93                           ; Code-generator required, PIC18F4620 Definitions
    94                           ; 
    95                           ; SFR Addresses
    96   000000                     
    97                           	psect	idataCOMRAM
    98   0035CE                     __pidataCOMRAM:
    99                           	callstack 0
   100                           
   101                           ;initializer for _RB7_flag
   102   0035CE  01                 	db	1
   103                           
   104                           ;initializer for _RB6_flag
   105   0035CF  01                 	db	1
   106                           
   107                           ;initializer for _RB5_flag
   108   0035D0  01                 	db	1
   109                           
   110                           ;initializer for _RB4_flag
   111   0035D1  01                 	db	1
   112                           
   113                           ;initializer for _buzzer
   114   0035D2  0A                 	db	10
   115                           
   116                           ;initializer for _led_1
   117   0035D3  03                 	db	3
   118                           
   119                           	psect	idataBANK0
   120   0034B6                     __pidataBANK0:
   121                           	callstack 0
   122                           
   123                           ;initializer for _port_registers
   124   0034B6  80                 	db	128
   125   0034B7  0F                 	db	15
   126   0034B8  81                 	db	129
   127   0034B9  0F                 	db	15
   128   0034BA  82                 	db	130
   129   0034BB  0F                 	db	15
   130   0034BC  83                 	db	131
   131   0034BD  0F                 	db	15
   132   0034BE  84                 	db	132
   133   0034BF  0F                 	db	15
   134                           
   135                           ;initializer for _lat_registers
   136   0034C0  89                 	db	137
   137   0034C1  0F                 	db	15
   138   0034C2  8A                 	db	138
   139   0034C3  0F                 	db	15
   140   0034C4  8B                 	db	139
   141   0034C5  0F                 	db	15
   142   0034C6  8C                 	db	140
   143   0034C7  0F                 	db	15
   144   0034C8  8D                 	db	141
   145   0034C9  0F                 	db	15
   146                           
   147                           ;initializer for _tris_registers
   148   0034CA  92                 	db	146
   149   0034CB  0F                 	db	15
   150   0034CC  93                 	db	147
   151   0034CD  0F                 	db	15
   152   0034CE  94                 	db	148
   153   0034CF  0F                 	db	15
   154   0034D0  95                 	db	149
   155   0034D1  0F                 	db	15
   156   0034D2  96                 	db	150
   157   0034D3  0F                 	db	15
   158                           
   159                           ;initializer for _eusart_1
   160   0034D4  2580               	dw	9600
   161   0034D6  00                 	db	0
   162   0034D7  00                 	db	0
   163   0034D8  01                 	db	1
   164   0034D9  00                 	db	0
   165   0034DA  01                 	db	1
   166   0034DB  00                 	db	0
   167   0034DC  00                 	db	0
   168   0034DD  00                 	db	0
   169   0034DE  00                 	db	0
   170   0034DF  00                 	db	0
   171   0034E0  00                 	db	0
   172   0034E1  00                 	db	0
   173   0034E2  00                 	db	0
   174   0034E3  00                 	db	0
   175                           
   176                           ;initializer for _ccp1_pwm
   177   0034E4  00                 	db	0
   178   0034E5  02                 	db	2
   179   0034E6  00                 	db	0
   180   0034E7  12                 	db	18
   181   0034E8  00                 	db	0
   182   0034E9  C350               	dw	50000
   183   0034EB  11                 	db	17
   184   0034EC  00                 	db	0
   185   0034ED  00                 	db	0
   186   0034EE  00                 	db	0
   187   0034EF  00                 	db	0
   188   0034F0  00                 	db	0
   189   0034F1  00                 	db	0
   190   000000                     _INTCON2bits	set	4081
   191   000000                     _SPBRGH	set	4016
   192   000000                     _SPBRG	set	4015
   193   000000                     _TXREG	set	4013
   194   000000                     _TXSTAbits	set	4012
   195   000000                     _RCREG	set	4014
   196   000000                     _TRISCbits	set	3988
   197   000000                     _CCPR2H	set	4028
   198   000000                     _CCPR2L	set	4027
   199   000000                     _CCPR1H	set	4031
   200   000000                     _CCPR1L	set	4030
   201   000000                     _ADRESL	set	4035
   202   000000                     _ADRESH	set	4036
   203   000000                     _ADCON1bits	set	4033
   204   000000                     _INTCONbits	set	4082
   205   000000                     _TRISD	set	3989
   206   000000                     _TRISB	set	3987
   207   000000                     _TRISE	set	3990
   208   000000                     _PORTBbits	set	3969
   209   000000                     _TRISC	set	3988
   210   000000                     _PIE1bits	set	3997
   211   000000                     _ADCON2bits	set	4032
   212   000000                     _ADCON0bits	set	4034
   213   000000                     _PORTE	set	3972
   214   000000                     _PORTD	set	3971
   215   000000                     _PORTC	set	3970
   216   000000                     _PORTB	set	3969
   217   000000                     _PORTA	set	3968
   218   000000                     _LATA	set	3977
   219   000000                     _TRISA	set	3986
   220   000000                     _PIE2bits	set	4000
   221   000000                     _CCP2CONbits	set	4026
   222   000000                     _CCP1CONbits	set	4029
   223   000000                     _PIR1bits	set	3998
   224   000000                     _T2CONbits	set	4042
   225   000000                     _PR2	set	4043
   226   000000                     _RCSTAbits	set	4011
   227   000000                     _T3CONbits	set	4017
   228   000000                     _PIR2bits	set	4001
   229   000000                     _TMR2	set	4044
   230   000000                     _INTCON3bits	set	4080
   231   000000                     _BAUDCONbits	set	4024
   232   000000                     _LATE	set	3981
   233   000000                     _LATD	set	3980
   234   000000                     _LATC	set	3979
   235   000000                     _LATB	set	3978
   236                           
   237                           ; #config settings
   238                           
   239                           	psect	cinit
   240   003306                     __pcinit:
   241                           	callstack 0
   242   003306                     start_initialization:
   243                           	callstack 0
   244   003306                     __initialization:
   245                           	callstack 0
   246                           
   247                           ; Initialize objects allocated to BANK0 (60 bytes)
   248                           ; load TBLPTR registers with __pidataBANK0
   249   003306  0EB6               	movlw	low __pidataBANK0
   250   003308  6EF6               	movwf	tblptrl,c
   251   00330A  0E34               	movlw	high __pidataBANK0
   252   00330C  6EF7               	movwf	tblptrh,c
   253   00330E  0E00               	movlw	low (__pidataBANK0 shr (0+16))
   254   003310  6EF8               	movwf	tblptru,c
   255   003312  EE00  F080         	lfsr	0,__pdataBANK0
   256   003316  EE10 F03C          	lfsr	1,60
   257   00331A                     copy_data0:
   258   00331A  0009               	tblrd		*+
   259   00331C  CFF5 FFEE          	movff	tablat,postinc0
   260   003320  50E5               	movf	postdec1,w,c
   261   003322  50E1               	movf	fsr1l,w,c
   262   003324  E1FA               	bnz	copy_data0
   263                           
   264                           ; Initialize objects allocated to COMRAM (6 bytes)
   265                           ; load TBLPTR registers with __pidataCOMRAM
   266   003326  0ECE               	movlw	low __pidataCOMRAM
   267   003328  6EF6               	movwf	tblptrl,c
   268   00332A  0E35               	movlw	high __pidataCOMRAM
   269   00332C  6EF7               	movwf	tblptrh,c
   270   00332E  0E00               	movlw	low (__pidataCOMRAM shr (0+16))
   271   003330  6EF8               	movwf	tblptru,c
   272   003332  EE00  F078         	lfsr	0,__pdataCOMRAM
   273   003336  EE10 F006          	lfsr	1,6
   274   00333A                     copy_data1:
   275   00333A  0009               	tblrd		*+
   276   00333C  CFF5 FFEE          	movff	tablat,postinc0
   277   003340  50E5               	movf	postdec1,w,c
   278   003342  50E1               	movf	fsr1l,w,c
   279   003344  E1FA               	bnz	copy_data1
   280                           
   281                           ; Clear objects allocated to BANK0 (39 bytes)
   282   003346  EE00  F0BC         	lfsr	0,__pbssBANK0
   283   00334A  0E27               	movlw	39
   284   00334C                     clear_0:
   285   00334C  6AEE               	clrf	postinc0,c
   286   00334E  06E8               	decf	wreg,f,c
   287   003350  E1FD               	bnz	clear_0
   288                           
   289                           ; Clear objects allocated to COMRAM (12 bytes)
   290   003352  EE00  F06C         	lfsr	0,__pbssCOMRAM
   291   003356  0E0C               	movlw	12
   292   003358                     clear_1:
   293   003358  6AEE               	clrf	postinc0,c
   294   00335A  06E8               	decf	wreg,f,c
   295   00335C  E1FD               	bnz	clear_1
   296   00335E                     end_of_initialization:
   297                           	callstack 0
   298   00335E                     __end_of__initialization:
   299                           	callstack 0
   300   00335E  907E               	bcf	int$flags,0,c	;clear compiler interrupt flag (level 1)
   301   003360  927E               	bcf	int$flags,1,c	;clear compiler interrupt flag (level 2)
   302   003362  0E00               	movlw	low (__Lmediumconst shr (0+16))
   303   003364  6EF8               	movwf	tblptru,c
   304   003366  0100               	movlb	0
   305   003368  EFE7  F019         	goto	_main	;jump to C main() function
   306                           
   307                           	psect	bssCOMRAM
   308   00006C                     __pbssCOMRAM:
   309                           	callstack 0
   310   00006C                     _CCP2_InterruptHandler:
   311                           	callstack 0
   312   00006C                     	ds	2
   313   00006E                     _CCP1_InterruptHandler:
   314                           	callstack 0
   315   00006E                     	ds	2
   316   000070                     _ADC_InterruptHandler:
   317                           	callstack 0
   318   000070                     	ds	2
   319   000072                     _timer2_preload:
   320                           	callstack 0
   321   000072                     	ds	1
   322   000073                     led_toggle@F3082:
   323                           	callstack 0
   324   000073                     	ds	1
   325   000074                     led_turn_off@F3077:
   326                           	callstack 0
   327   000074                     	ds	1
   328   000075                     led_turn_on@F3072:
   329                           	callstack 0
   330   000075                     	ds	1
   331   000076                     led_initialize@F3067:
   332                           	callstack 0
   333   000076                     	ds	1
   334   000077                     _received_data:
   335                           	callstack 0
   336   000077                     	ds	1
   337                           
   338                           	psect	dataCOMRAM
   339   000078                     __pdataCOMRAM:
   340                           	callstack 0
   341   000078                     _RB7_flag:
   342                           	callstack 0
   343   000078                     	ds	1
   344   000079                     _RB6_flag:
   345                           	callstack 0
   346   000079                     	ds	1
   347   00007A                     _RB5_flag:
   348                           	callstack 0
   349   00007A                     	ds	1
   350   00007B                     _RB4_flag:
   351                           	callstack 0
   352   00007B                     	ds	1
   353   00007C                     _buzzer:
   354                           	callstack 0
   355   00007C                     	ds	1
   356   00007D                     _led_1:
   357                           	callstack 0
   358   00007D                     	ds	1
   359                           
   360                           	psect	bssBANK0
   361   0000BC                     __pbssBANK0:
   362                           	callstack 0
   363   0000BC                     _TMR2_InterruptHandler:
   364                           	callstack 0
   365   0000BC                     	ds	2
   366   0000BE                     _RB7_InterruptHandler_LOW:
   367                           	callstack 0
   368   0000BE                     	ds	2
   369   0000C0                     _RB7_InterruptHandler_HIGH:
   370                           	callstack 0
   371   0000C0                     	ds	2
   372   0000C2                     _RB6_InterruptHandler_LOW:
   373                           	callstack 0
   374   0000C2                     	ds	2
   375   0000C4                     _RB6_InterruptHandler_HIGH:
   376                           	callstack 0
   377   0000C4                     	ds	2
   378   0000C6                     _RB5_InterruptHandler_LOW:
   379                           	callstack 0
   380   0000C6                     	ds	2
   381   0000C8                     _RB5_InterruptHandler_HIGH:
   382                           	callstack 0
   383   0000C8                     	ds	2
   384   0000CA                     _RB4_InterruptHandler_LOW:
   385                           	callstack 0
   386   0000CA                     	ds	2
   387   0000CC                     _RB4_InterruptHandler_HIGH:
   388                           	callstack 0
   389   0000CC                     	ds	2
   390   0000CE                     _INT2_InterruptHandler:
   391                           	callstack 0
   392   0000CE                     	ds	2
   393   0000D0                     _INT1_InterruptHandler:
   394                           	callstack 0
   395   0000D0                     	ds	2
   396   0000D2                     _INT0_InterruptHandler:
   397                           	callstack 0
   398   0000D2                     	ds	2
   399   0000D4                     _EUSART_OverrunErrorHandler:
   400                           	callstack 0
   401   0000D4                     	ds	2
   402   0000D6                     _EUSART_FramingErrorHandler:
   403                           	callstack 0
   404   0000D6                     	ds	2
   405   0000D8                     _EUSART_RxInterruptHandler:
   406                           	callstack 0
   407   0000D8                     	ds	2
   408   0000DA                     _EUSART_TxInterruptHandler:
   409                           	callstack 0
   410   0000DA                     	ds	2
   411   0000DC                     CCP_Compare_Mode_Set_Value@F3136:
   412                           	callstack 0
   413   0000DC                     	ds	2
   414   0000DE                     _timer:
   415                           	callstack 0
   416   0000DE                     	ds	5
   417                           
   418                           	psect	dataBANK0
   419   000080                     __pdataBANK0:
   420                           	callstack 0
   421   000080                     _port_registers:
   422                           	callstack 0
   423   000080                     	ds	10
   424   00008A                     _lat_registers:
   425                           	callstack 0
   426   00008A                     	ds	10
   427   000094                     _tris_registers:
   428                           	callstack 0
   429   000094                     	ds	10
   430   00009E                     _eusart_1:
   431                           	callstack 0
   432   00009E                     	ds	16
   433   0000AE                     _ccp1_pwm:
   434                           	callstack 0
   435   0000AE                     	ds	14
   436                           
   437                           	psect	cstackCOMRAM
   438   000001                     __pcstackCOMRAM:
   439                           	callstack 0
   440   000001                     RB4_ISR@RB4_Source:
   441                           	callstack 0
   442   000001                     RB5_ISR@RB5_Source:
   443                           	callstack 0
   444   000001                     RB6_ISR@RB6_Source:
   445                           	callstack 0
   446   000001                     RB7_ISR@RB7_Source:
   447                           	callstack 0
   448                           
   449                           ; 1 bytes @ 0x0
   450   000001                     	ds	1
   451   000002                     ?___xxtofl:
   452                           	callstack 0
   453   000002                     CCP_Interrupt_Config@_ccp_obj:
   454                           	callstack 0
   455   000002                     CCP_Mode_Timer_Select@_ccp_obj:
   456                           	callstack 0
   457   000002                     EUSART_ASYNC_Read_Byte_Blocking@_eusart_obj:
   458                           	callstack 0
   459   000002                     EUSART_ASYNC_TX_Init@_eusart_obj:
   460                           	callstack 0
   461   000002                     EUSART_ASYNC_RX_Init@_eusart_obj:
   462                           	callstack 0
   463   000002                     gpio_pin_direction_initialize@config:
   464                           	callstack 0
   465   000002                     gpio_pin_write_logic@config:
   466                           	callstack 0
   467   000002                     gpio_pin_toggle_logic@config:
   468                           	callstack 0
   469   000002                     Timer2_Init@timer2:
   470                           	callstack 0
   471   000002                     ___xxtofl@val:
   472                           	callstack 0
   473                           
   474                           ; 4 bytes @ 0x1
   475   000002                     	ds	1
   476   000003                     ??_gpio_pin_toggle_logic:
   477   000003                     ??_Timer2_Init:
   478   000003                     ??_gpio_pin_direction_initialize:
   479   000003                     EUSART_ASYNC_Read_Byte_Blocking@_data:
   480                           	callstack 0
   481   000003                     EUSART_ASYNC_TX_Init@retVal:
   482                           	callstack 0
   483   000003                     EUSART_ASYNC_RX_Init@retVal:
   484                           	callstack 0
   485   000003                     gpio_pin_write_logic@logic_status:
   486                           	callstack 0
   487                           
   488                           ; 1 bytes @ 0x2
   489   000003                     	ds	1
   490   000004                     ??_gpio_pin_write_logic:
   491   000004                     CCP_Capture_Mode_Config@_ccp_obj:
   492                           	callstack 0
   493   000004                     CCP_Compare_Mode_Config@_ccp_obj:
   494                           	callstack 0
   495   000004                     EUSART_ASYNC_Read_Byte_Blocking@retVal:
   496                           	callstack 0
   497   000004                     Timer2_Init@retVal:
   498                           	callstack 0
   499                           
   500                           ; 1 bytes @ 0x3
   501   000004                     	ds	1
   502   000005                     
   503                           ; 1 bytes @ 0x4
   504   000005                     	ds	1
   505   000006                     ??___xxtofl:
   506   000006                     CCP_Capture_Mode_Config@ret:
   507                           	callstack 0
   508   000006                     CCP_Compare_Mode_Config@ret:
   509                           	callstack 0
   510                           
   511                           ; 1 bytes @ 0x5
   512   000006                     	ds	1
   513   000007                     led_toggle@led:
   514                           	callstack 0
   515                           
   516                           ; 1 bytes @ 0x6
   517   000007                     	ds	1
   518   000008                     ??_led_toggle:
   519   000008                     gpio_pin_direction_initialize@retVal:
   520                           	callstack 0
   521                           
   522                           ; 1 bytes @ 0x7
   523   000008                     	ds	1
   524   000009                     led_toggle@pin_obj:
   525                           	callstack 0
   526   000009                     gpio_pin_write_logic@retVal:
   527                           	callstack 0
   528                           
   529                           ; 1 bytes @ 0x8
   530   000009                     	ds	1
   531   00000A                     led_turn_off@led:
   532                           	callstack 0
   533   00000A                     gpio_pin_initialize@config:
   534                           	callstack 0
   535   00000A                     ___xxtofl@sign:
   536                           	callstack 0
   537                           
   538                           ; 1 bytes @ 0x9
   539   00000A                     	ds	1
   540   00000B                     ??_gpio_pin_initialize:
   541   00000B                     ??_led_turn_off:
   542   00000B                     ___xxtofl@exp:
   543                           	callstack 0
   544                           
   545                           ; 1 bytes @ 0xA
   546   00000B                     	ds	1
   547   00000C                     led_turn_off@pin_obj:
   548                           	callstack 0
   549   00000C                     gpio_pin_initialize@retVal:
   550                           	callstack 0
   551   00000C                     ___xxtofl@arg:
   552                           	callstack 0
   553                           
   554                           ; 4 bytes @ 0xB
   555   00000C                     	ds	1
   556   00000D                     led_initialize@led:
   557                           	callstack 0
   558                           
   559                           ; 1 bytes @ 0xC
   560   00000D                     	ds	1
   561   00000E                     ??_led_initialize:
   562                           
   563                           ; 1 bytes @ 0xD
   564   00000E                     	ds	1
   565   00000F                     led_initialize@retVal:
   566                           	callstack 0
   567                           
   568                           ; 1 bytes @ 0xE
   569   00000F                     	ds	1
   570   000010                     ?___flmul:
   571                           	callstack 0
   572   000010                     led_initialize@pin_obj:
   573                           	callstack 0
   574   000010                     ___flmul@b:
   575                           	callstack 0
   576                           
   577                           ; 4 bytes @ 0xF
   578   000010                     	ds	1
   579   000011                     
   580                           ; 1 bytes @ 0x10
   581   000011                     	ds	3
   582   000014                     ___flmul@a:
   583                           	callstack 0
   584                           
   585                           ; 4 bytes @ 0x13
   586   000014                     	ds	4
   587   000018                     ??___flmul:
   588                           
   589                           ; 1 bytes @ 0x17
   590   000018                     	ds	4
   591   00001C                     ___flmul@sign:
   592                           	callstack 0
   593                           
   594                           ; 1 bytes @ 0x1B
   595   00001C                     	ds	1
   596   00001D                     ___flmul@grs:
   597                           	callstack 0
   598                           
   599                           ; 4 bytes @ 0x1C
   600   00001D                     	ds	4
   601   000021                     ___flmul@aexp:
   602                           	callstack 0
   603                           
   604                           ; 1 bytes @ 0x20
   605   000021                     	ds	1
   606   000022                     ___flmul@bexp:
   607                           	callstack 0
   608                           
   609                           ; 1 bytes @ 0x21
   610   000022                     	ds	1
   611   000023                     ___flmul@prod:
   612                           	callstack 0
   613                           
   614                           ; 4 bytes @ 0x22
   615   000023                     	ds	4
   616   000027                     ___flmul@temp:
   617                           	callstack 0
   618                           
   619                           ; 2 bytes @ 0x26
   620   000027                     	ds	2
   621   000029                     ?___fldiv:
   622                           	callstack 0
   623   000029                     ___fldiv@b:
   624                           	callstack 0
   625                           
   626                           ; 4 bytes @ 0x28
   627   000029                     	ds	4
   628   00002D                     ___fldiv@a:
   629                           	callstack 0
   630                           
   631                           ; 4 bytes @ 0x2C
   632   00002D                     	ds	4
   633   000031                     ??___fldiv:
   634                           
   635                           ; 1 bytes @ 0x30
   636   000031                     	ds	4
   637   000035                     ___fldiv@rem:
   638                           	callstack 0
   639                           
   640                           ; 4 bytes @ 0x34
   641   000035                     	ds	4
   642   000039                     ___fldiv@sign:
   643                           	callstack 0
   644                           
   645                           ; 1 bytes @ 0x38
   646   000039                     	ds	1
   647   00003A                     ___fldiv@new_exp:
   648                           	callstack 0
   649                           
   650                           ; 2 bytes @ 0x39
   651   00003A                     	ds	2
   652   00003C                     ___fldiv@grs:
   653                           	callstack 0
   654                           
   655                           ; 4 bytes @ 0x3B
   656   00003C                     	ds	4
   657   000040                     ___fldiv@bexp:
   658                           	callstack 0
   659                           
   660                           ; 1 bytes @ 0x3F
   661   000040                     	ds	1
   662   000041                     ___fldiv@aexp:
   663                           	callstack 0
   664                           
   665                           ; 1 bytes @ 0x40
   666   000041                     	ds	1
   667   000042                     ?___fladd:
   668                           	callstack 0
   669   000042                     ___fladd@b:
   670                           	callstack 0
   671                           
   672                           ; 4 bytes @ 0x41
   673   000042                     	ds	4
   674   000046                     ___fladd@a:
   675                           	callstack 0
   676                           
   677                           ; 4 bytes @ 0x45
   678   000046                     	ds	4
   679   00004A                     ??___fladd:
   680                           
   681                           ; 1 bytes @ 0x49
   682   00004A                     	ds	4
   683   00004E                     ___fladd@signs:
   684                           	callstack 0
   685                           
   686                           ; 1 bytes @ 0x4D
   687   00004E                     	ds	1
   688   00004F                     ___fladd@aexp:
   689                           	callstack 0
   690                           
   691                           ; 1 bytes @ 0x4E
   692   00004F                     	ds	1
   693   000050                     ___fladd@bexp:
   694                           	callstack 0
   695                           
   696                           ; 1 bytes @ 0x4F
   697   000050                     	ds	1
   698   000051                     ___fladd@grs:
   699                           	callstack 0
   700                           
   701                           ; 1 bytes @ 0x50
   702   000051                     	ds	1
   703   000052                     ?___fltol:
   704                           	callstack 0
   705   000052                     ___fltol@f1:
   706                           	callstack 0
   707                           
   708                           ; 4 bytes @ 0x51
   709   000052                     	ds	4
   710   000056                     ??___fltol:
   711                           
   712                           ; 1 bytes @ 0x55
   713   000056                     	ds	4
   714   00005A                     ___fltol@sign1:
   715                           	callstack 0
   716                           
   717                           ; 1 bytes @ 0x59
   718   00005A                     	ds	1
   719   00005B                     ___fltol@exp1:
   720                           	callstack 0
   721                           
   722                           ; 1 bytes @ 0x5A
   723   00005B                     	ds	1
   724   00005C                     CCP_PWM_Mode_Config@_ccp_obj:
   725                           	callstack 0
   726   00005C                     EUSART_Baud_Rate_Calculation@_eusart_obj:
   727                           	callstack 0
   728                           
   729                           ; 1 bytes @ 0x5B
   730   00005C                     	ds	1
   731   00005D                     ??_CCP_PWM_Mode_Config:
   732   00005D                     ??_EUSART_Baud_Rate_Calculation:
   733                           
   734                           ; 1 bytes @ 0x5C
   735   00005D                     	ds	2
   736   00005F                     EUSART_Baud_Rate_Calculation@retVal:
   737                           	callstack 0
   738   00005F                     _CCP_PWM_Mode_Config$3538:
   739                           	callstack 0
   740                           
   741                           ; 4 bytes @ 0x5E
   742   00005F                     	ds	1
   743   000060                     EUSART_Baud_Rate_Calculation@baud_rate_temp:
   744                           	callstack 0
   745                           
   746                           ; 4 bytes @ 0x5F
   747   000060                     	ds	3
   748   000063                     _CCP_PWM_Mode_Config$3539:
   749                           	callstack 0
   750                           
   751                           ; 4 bytes @ 0x62
   752   000063                     	ds	1
   753   000064                     _EUSART_Baud_Rate_Calculation$3533:
   754                           	callstack 0
   755                           
   756                           ; 4 bytes @ 0x63
   757   000064                     	ds	3
   758   000067                     CCP_Init@_ccp_obj:
   759                           	callstack 0
   760                           
   761                           ; 1 bytes @ 0x66
   762   000067                     	ds	1
   763   000068                     EUSART_ASYNC_Init@_eusart_obj:
   764                           	callstack 0
   765                           
   766                           ; 1 bytes @ 0x67
   767   000068                     	ds	1
   768   000069                     CCP_Init@retVal:
   769                           	callstack 0
   770   000069                     EUSART_ASYNC_Init@retVal:
   771                           	callstack 0
   772                           
   773                           ; 1 bytes @ 0x68
   774   000069                     	ds	1
   775   00006A                     ??_main:
   776                           
   777                           ; 1 bytes @ 0x69
   778   00006A                     	ds	2
   779                           
   780 ;;
   781 ;;Main: autosize = 0, tempsize = 2, incstack = 0, save=0
   782 ;;
   783 ;; *************** function _main *****************
   784 ;; Defined at:
   785 ;;		line 19 in file "application.c"
   786 ;; Parameters:    Size  Location     Type
   787 ;;		None
   788 ;; Auto vars:     Size  Location     Type
   789 ;;  retVal          1    0        unsigned char 
   790 ;; Return value:  Size  Location     Type
   791 ;;                  2  954[None  ] int 
   792 ;; Registers used:
   793 ;;		wreg, fsr2l, fsr2h, status,2, status,0, prodl, prodh, cstack
   794 ;; Tracked objects:
   795 ;;		On entry : 0/0
   796 ;;		On exit  : 0/0
   797 ;;		Unchanged: 0/0
   798 ;; Data sizes:     COMRAM   BANK0   BANK1   BANK2   BANK3   BANK4   BANK5   BANK6   BANK7   BANK8   BANK9  BANK10  BANK1
      +1  BANK12  BANK13  BANK14  BANK15
   799 ;;      Params:         0       0       0       0       0       0       0       0       0       0       0       0       
      +0       0       0       0       0
   800 ;;      Locals:         0       0       0       0       0       0       0       0       0       0       0       0       
      +0       0       0       0       0
   801 ;;      Temps:          2       0       0       0       0       0       0       0       0       0       0       0       
      +0       0       0       0       0
   802 ;;      Totals:         2       0       0       0       0       0       0       0       0       0       0       0       
      +0       0       0       0       0
   803 ;;Total ram usage:        2 bytes
   804 ;; Hardware stack levels required when called: 7
   805 ;; This function calls:
   806 ;;		_EUSART_ASYNC_Read_Byte_Blocking
   807 ;;		_application_initialize
   808 ;;		_led_toggle
   809 ;;		_led_turn_off
   810 ;; This function is called by:
   811 ;;		Startup code after reset
   812 ;; This function uses a non-reentrant model
   813 ;;
   814                           
   815                           	psect	text0
   816   0033CE                     __ptext0:
   817                           	callstack 0
   818   0033CE                     _main:
   819                           	callstack 24
   820   0033CE                     
   821                           ;application.c: 21:     application_initialize();
   822   0033CE  ECDE  F01A         	call	_application_initialize	;wreg free
   823   0033D2                     l5377:
   824   0033D2  0E9E               	movlw	low _eusart_1
   825   0033D4  6E02               	movwf	EUSART_ASYNC_Read_Byte_Blocking@_eusart_obj^0,c
   826   0033D6  0E77               	movlw	low _received_data
   827   0033D8  6E03               	movwf	EUSART_ASYNC_Read_Byte_Blocking@_data^0,c
   828   0033DA  EC14  F01A         	call	_EUSART_ASYNC_Read_Byte_Blocking	;wreg free
   829   0033DE                     
   830                           ;application.c: 27:         if(50 >= received_data){
   831   0033DE  0E33               	movlw	51
   832   0033E0  6077               	cpfslt	_received_data^0,c
   833   0033E2  EFF5  F019         	goto	u5501
   834   0033E6  EFF7  F019         	goto	u5500
   835   0033EA                     u5501:
   836   0033EA  EF08  F01A         	goto	l5385
   837   0033EE                     u5500:
   838   0033EE                     
   839                           ;application.c: 28:             led_toggle(&led_1);
   840   0033EE  0E7D               	movlw	low _led_1
   841   0033F0  6E07               	movwf	led_toggle@led^0,c
   842   0033F2  EC19  F019         	call	_led_toggle	;wreg free
   843   0033F6                     
   844                           ;application.c: 29:             _delay((unsigned long)((500)*(8000000UL/4000.0)));
   845   0033F6  0E06               	movlw	6
   846   0033F8  6E6B               	movwf	(??_main+1)^0,c
   847   0033FA  0E13               	movlw	19
   848   0033FC  6E6A               	movwf	??_main^0,c
   849   0033FE  0EAE               	movlw	174
   850   003400                     u5517:
   851   003400  2EE8               	decfsz	wreg,f,c
   852   003402  D7FE               	bra	u5517
   853   003404  2E6A               	decfsz	??_main^0,f,c
   854   003406  D7FC               	bra	u5517
   855   003408  2E6B               	decfsz	(??_main+1)^0,f,c
   856   00340A  D7FA               	bra	u5517
   857                           
   858                           ;application.c: 30:         }
   859   00340C  EFE9  F019         	goto	l5377
   860   003410                     l5385:
   861                           
   862                           ;application.c: 32:             led_turn_off(&led_1);
   863   003410  0E7D               	movlw	low _led_1
   864   003412  6E0A               	movwf	led_turn_off@led^0,c
   865   003414  ECE2  F018         	call	_led_turn_off	;wreg free
   866                           
   867                           ;application.c: 33:             led_turn_off(&buzzer);
   868   003418  0E7C               	movlw	low _buzzer
   869   00341A  6E0A               	movwf	led_turn_off@led^0,c
   870   00341C  ECE2  F018         	call	_led_turn_off	;wreg free
   871   003420  EFE9  F019         	goto	l5377
   872   003424  EF07  F000         	goto	start
   873   003428                     __end_of_main:
   874                           	callstack 0
   875                           
   876 ;; *************** function _led_turn_off *****************
   877 ;; Defined at:
   878 ;;		line 61 in file "ECU_Layer/LED/ecu_led.c"
   879 ;; Parameters:    Size  Location     Type
   880 ;;  led             1    9[COMRAM] PTR const struct .
   881 ;;		 -> buzzer(1), led_1(1), 
   882 ;; Auto vars:     Size  Location     Type
   883 ;;  pin_obj         1   11[COMRAM] struct .
   884 ;;  retVal          1    0        unsigned char 
   885 ;; Return value:  Size  Location     Type
   886 ;;                  1    wreg      unsigned char 
   887 ;; Registers used:
   888 ;;		wreg, fsr2l, fsr2h, status,2, status,0, prodl, prodh, cstack
   889 ;; Tracked objects:
   890 ;;		On entry : 0/0
   891 ;;		On exit  : 0/0
   892 ;;		Unchanged: 0/0
   893 ;; Data sizes:     COMRAM   BANK0   BANK1   BANK2   BANK3   BANK4   BANK5   BANK6   BANK7   BANK8   BANK9  BANK10  BANK1
      +1  BANK12  BANK13  BANK14  BANK15
   894 ;;      Params:         1       0       0       0       0       0       0       0       0       0       0       0       
      +0       0       0       0       0
   895 ;;      Locals:         1       0       0       0       0       0       0       0       0       0       0       0       
      +0       0       0       0       0
   896 ;;      Temps:          1       0       0       0       0       0       0       0       0       0       0       0       
      +0       0       0       0       0
   897 ;;      Totals:         3       0       0       0       0       0       0       0       0       0       0       0       
      +0       0       0       0       0
   898 ;;Total ram usage:        3 bytes
   899 ;; Hardware stack levels used: 1
   900 ;; Hardware stack levels required when called: 3
   901 ;; This function calls:
   902 ;;		_gpio_pin_write_logic
   903 ;; This function is called by:
   904 ;;		_main
   905 ;; This function uses a non-reentrant model
   906 ;;
   907                           
   908                           	psect	text1
   909   0031C4                     __ptext1:
   910                           	callstack 0
   911   0031C4                     _led_turn_off:
   912                           	callstack 27
   913   0031C4                     
   914                           ;ECU_Layer/LED/ecu_led.c: 63:     if(((void*)0) == led){
   915   0031C4  500A               	movf	led_turn_off@led^0,w,c
   916   0031C6  A4D8               	btfss	status,2,c
   917   0031C8  EFE8  F018         	goto	u4541
   918   0031CC  EFEA  F018         	goto	u4540
   919   0031D0                     u4541:
   920   0031D0  EFEC  F018         	goto	l23
   921   0031D4                     u4540:
   922   0031D4                     
   923                           ;ECU_Layer/LED/ecu_led.c: 65:     }else{
   924   0031D4  EF18  F019         	goto	l27
   925   0031D8                     l23:
   926                           
   927                           ;ECU_Layer/LED/ecu_led.c: 66:         pin_config_t pin_obj = {.port = led->port,
   928   0031D8  C074  F00C         	movff	led_turn_off@F3077,led_turn_off@pin_obj
   929   0031DC  500A               	movf	led_turn_off@led^0,w,c
   930   0031DE  6ED9               	movwf	fsr2l,c
   931   0031E0  6ADA               	clrf	fsr2h,c
   932   0031E2  50DF               	movf	223,w,c
   933   0031E4  0B07               	andlw	7
   934   0031E6  6E0B               	movwf	??_led_turn_off^0,c
   935   0031E8  500C               	movf	led_turn_off@pin_obj^0,w,c
   936   0031EA  180B               	xorwf	??_led_turn_off^0,w,c
   937   0031EC  0BF8               	andlw	-8
   938   0031EE  180B               	xorwf	??_led_turn_off^0,w,c
   939   0031F0  6E0C               	movwf	led_turn_off@pin_obj^0,c
   940   0031F2  500A               	movf	led_turn_off@led^0,w,c
   941   0031F4  6ED9               	movwf	fsr2l,c
   942   0031F6  6ADA               	clrf	fsr2h,c
   943   0031F8  30DF               	rrcf	223,w,c
   944   0031FA  32E8               	rrcf	wreg,f,c
   945   0031FC  32E8               	rrcf	wreg,f,c
   946   0031FE  0B07               	andlw	7
   947   003200  6E0B               	movwf	??_led_turn_off^0,c
   948   003202  460B               	rlncf	??_led_turn_off^0,f,c
   949   003204  460B               	rlncf	??_led_turn_off^0,f,c
   950   003206  460B               	rlncf	??_led_turn_off^0,f,c
   951   003208  500C               	movf	led_turn_off@pin_obj^0,w,c
   952   00320A  180B               	xorwf	??_led_turn_off^0,w,c
   953   00320C  0BC7               	andlw	-57
   954   00320E  180B               	xorwf	??_led_turn_off^0,w,c
   955   003210  6E0C               	movwf	led_turn_off@pin_obj^0,c
   956   003212  500A               	movf	led_turn_off@led^0,w,c
   957   003214  6ED9               	movwf	fsr2l,c
   958   003216  6ADA               	clrf	fsr2h,c
   959   003218  ACDF               	btfss	indf2,6,c
   960   00321A  D002               	bra	u4555
   961   00321C  8C0C               	bsf	led_turn_off@pin_obj^0,6,c
   962   00321E  D001               	bra	u4557
   963   003220                     u4555:
   964   003220  9C0C               	bcf	led_turn_off@pin_obj^0,6,c
   965   003222                     u4557:
   966   003222  9E0C               	bcf	led_turn_off@pin_obj^0,7,c
   967   003224                     
   968                           ;ECU_Layer/LED/ecu_led.c: 71:         gpio_pin_write_logic(&pin_obj , GPIO_LOW);
   969   003224  0E0C               	movlw	low led_turn_off@pin_obj
   970   003226  6E02               	movwf	gpio_pin_write_logic@config^0,c
   971   003228  0E00               	movlw	0
   972   00322A  6E03               	movwf	gpio_pin_write_logic@logic_status^0,c
   973   00322C  EC49  F015         	call	_gpio_pin_write_logic	;wreg free
   974   003230                     l27:
   975   003230  0012               	return		;funcret
   976   003232                     __end_of_led_turn_off:
   977                           	callstack 0
   978                           
   979 ;; *************** function _led_toggle *****************
   980 ;; Defined at:
   981 ;;		line 83 in file "ECU_Layer/LED/ecu_led.c"
   982 ;; Parameters:    Size  Location     Type
   983 ;;  led             1    6[COMRAM] PTR const struct .
   984 ;;		 -> led_1(1), 
   985 ;; Auto vars:     Size  Location     Type
   986 ;;  pin_obj         1    8[COMRAM] struct .
   987 ;;  retVal          1    0        unsigned char 
   988 ;; Return value:  Size  Location     Type
   989 ;;                  1    wreg      unsigned char 
   990 ;; Registers used:
   991 ;;		wreg, fsr2l, fsr2h, status,2, status,0, prodl, prodh, cstack
   992 ;; Tracked objects:
   993 ;;		On entry : 0/0
   994 ;;		On exit  : 0/0
   995 ;;		Unchanged: 0/0
   996 ;; Data sizes:     COMRAM   BANK0   BANK1   BANK2   BANK3   BANK4   BANK5   BANK6   BANK7   BANK8   BANK9  BANK10  BANK1
      +1  BANK12  BANK13  BANK14  BANK15
   997 ;;      Params:         1       0       0       0       0       0       0       0       0       0       0       0       
      +0       0       0       0       0
   998 ;;      Locals:         1       0       0       0       0       0       0       0       0       0       0       0       
      +0       0       0       0       0
   999 ;;      Temps:          1       0       0       0       0       0       0       0       0       0       0       0       
      +0       0       0       0       0
  1000 ;;      Totals:         3       0       0       0       0       0       0       0       0       0       0       0       
      +0       0       0       0       0
  1001 ;;Total ram usage:        3 bytes
  1002 ;; Hardware stack levels used: 1
  1003 ;; Hardware stack levels required when called: 3
  1004 ;; This function calls:
  1005 ;;		_gpio_pin_toggle_logic
  1006 ;; This function is called by:
  1007 ;;		_main
  1008 ;; This function uses a non-reentrant model
  1009 ;;
  1010                           
  1011                           	psect	text2
  1012   003232                     __ptext2:
  1013                           	callstack 0
  1014   003232                     _led_toggle:
  1015                           	callstack 27
  1016   003232                     
  1017                           ;ECU_Layer/LED/ecu_led.c: 85:     if(((void*)0) == led){
  1018   003232  5007               	movf	led_toggle@led^0,w,c
  1019   003234  A4D8               	btfss	status,2,c
  1020   003236  EF1F  F019         	goto	u4561
  1021   00323A  EF21  F019         	goto	u4560
  1022   00323E                     u4561:
  1023   00323E  EF23  F019         	goto	l30
  1024   003242                     u4560:
  1025   003242                     
  1026                           ;ECU_Layer/LED/ecu_led.c: 87:     }else{
  1027   003242  EF4D  F019         	goto	l34
  1028   003246                     l30:
  1029                           
  1030                           ;ECU_Layer/LED/ecu_led.c: 88:         pin_config_t pin_obj = {.port = led->port,
  1031   003246  C073  F009         	movff	led_toggle@F3082,led_toggle@pin_obj
  1032   00324A  5007               	movf	led_toggle@led^0,w,c
  1033   00324C  6ED9               	movwf	fsr2l,c
  1034   00324E  6ADA               	clrf	fsr2h,c
  1035   003250  50DF               	movf	223,w,c
  1036   003252  0B07               	andlw	7
  1037   003254  6E08               	movwf	??_led_toggle^0,c
  1038   003256  5009               	movf	led_toggle@pin_obj^0,w,c
  1039   003258  1808               	xorwf	??_led_toggle^0,w,c
  1040   00325A  0BF8               	andlw	-8
  1041   00325C  1808               	xorwf	??_led_toggle^0,w,c
  1042   00325E  6E09               	movwf	led_toggle@pin_obj^0,c
  1043   003260  5007               	movf	led_toggle@led^0,w,c
  1044   003262  6ED9               	movwf	fsr2l,c
  1045   003264  6ADA               	clrf	fsr2h,c
  1046   003266  30DF               	rrcf	223,w,c
  1047   003268  32E8               	rrcf	wreg,f,c
  1048   00326A  32E8               	rrcf	wreg,f,c
  1049   00326C  0B07               	andlw	7
  1050   00326E  6E08               	movwf	??_led_toggle^0,c
  1051   003270  4608               	rlncf	??_led_toggle^0,f,c
  1052   003272  4608               	rlncf	??_led_toggle^0,f,c
  1053   003274  4608               	rlncf	??_led_toggle^0,f,c
  1054   003276  5009               	movf	led_toggle@pin_obj^0,w,c
  1055   003278  1808               	xorwf	??_led_toggle^0,w,c
  1056   00327A  0BC7               	andlw	-57
  1057   00327C  1808               	xorwf	??_led_toggle^0,w,c
  1058   00327E  6E09               	movwf	led_toggle@pin_obj^0,c
  1059   003280  5007               	movf	led_toggle@led^0,w,c
  1060   003282  6ED9               	movwf	fsr2l,c
  1061   003284  6ADA               	clrf	fsr2h,c
  1062   003286  ACDF               	btfss	indf2,6,c
  1063   003288  D002               	bra	u4575
  1064   00328A  8C09               	bsf	led_toggle@pin_obj^0,6,c
  1065   00328C  D001               	bra	u4577
  1066   00328E                     u4575:
  1067   00328E  9C09               	bcf	led_toggle@pin_obj^0,6,c
  1068   003290                     u4577:
  1069   003290  9E09               	bcf	led_toggle@pin_obj^0,7,c
  1070   003292                     
  1071                           ;ECU_Layer/LED/ecu_led.c: 93:         gpio_pin_toggle_logic(&pin_obj);
  1072   003292  0E09               	movlw	low led_toggle@pin_obj
  1073   003294  6E02               	movwf	gpio_pin_toggle_logic@config^0,c
  1074   003296  EC67  F018         	call	_gpio_pin_toggle_logic	;wreg free
  1075   00329A                     l34:
  1076   00329A  0012               	return		;funcret
  1077   00329C                     __end_of_led_toggle:
  1078                           	callstack 0
  1079                           
  1080 ;; *************** function _gpio_pin_toggle_logic *****************
  1081 ;; Defined at:
  1082 ;;		line 125 in file "MCAL_Layer/GPIO/hal_gpio.c"
  1083 ;; Parameters:    Size  Location     Type
  1084 ;;  config          1    1[COMRAM] PTR const struct .
  1085 ;;		 -> led_toggle@pin_obj(1), 
  1086 ;; Auto vars:     Size  Location     Type
  1087 ;;  retVal          1    0        unsigned char 
  1088 ;; Return value:  Size  Location     Type
  1089 ;;                  1    wreg      unsigned char 
  1090 ;; Registers used:
  1091 ;;		wreg, fsr2l, fsr2h, status,2, status,0, prodl, prodh
  1092 ;; Tracked objects:
  1093 ;;		On entry : 0/0
  1094 ;;		On exit  : 0/0
  1095 ;;		Unchanged: 0/0
  1096 ;; Data sizes:     COMRAM   BANK0   BANK1   BANK2   BANK3   BANK4   BANK5   BANK6   BANK7   BANK8   BANK9  BANK10  BANK1
      +1  BANK12  BANK13  BANK14  BANK15
  1097 ;;      Params:         1       0       0       0       0       0       0       0       0       0       0       0       
      +0       0       0       0       0
  1098 ;;      Locals:         0       0       0       0       0       0       0       0       0       0       0       0       
      +0       0       0       0       0
  1099 ;;      Temps:          4       0       0       0       0       0       0       0       0       0       0       0       
      +0       0       0       0       0
  1100 ;;      Totals:         5       0       0       0       0       0       0       0       0       0       0       0       
      +0       0       0       0       0
  1101 ;;Total ram usage:        5 bytes
  1102 ;; Hardware stack levels used: 1
  1103 ;; Hardware stack levels required when called: 2
  1104 ;; This function calls:
  1105 ;;		Nothing
  1106 ;; This function is called by:
  1107 ;;		_led_toggle
  1108 ;; This function uses a non-reentrant model
  1109 ;;
  1110                           
  1111                           	psect	text3
  1112   0030CE                     __ptext3:
  1113                           	callstack 0
  1114   0030CE                     _gpio_pin_toggle_logic:
  1115                           	callstack 27
  1116   0030CE                     
  1117                           ;MCAL_Layer/GPIO/hal_gpio.c: 127:     if((((void*)0) == config) || (config->pin > 8 -1))
  1118   0030CE  5002               	movf	gpio_pin_toggle_logic@config^0,w,c
  1119   0030D0  B4D8               	btfsc	status,2,c
  1120   0030D2  EF6D  F018         	goto	u4511
  1121   0030D6  EF6F  F018         	goto	u4510
  1122   0030DA                     u4511:
  1123   0030DA  EF7F  F018         	goto	l4743
  1124   0030DE                     u4510:
  1125   0030DE  5002               	movf	gpio_pin_toggle_logic@config^0,w,c
  1126   0030E0  6ED9               	movwf	fsr2l,c
  1127   0030E2  6ADA               	clrf	fsr2h,c
  1128   0030E4  30DF               	rrcf	223,w,c
  1129   0030E6  32E8               	rrcf	wreg,f,c
  1130   0030E8  32E8               	rrcf	wreg,f,c
  1131   0030EA  0B07               	andlw	7
  1132   0030EC  6E03               	movwf	??_gpio_pin_toggle_logic^0,c
  1133   0030EE  0E07               	movlw	7
  1134   0030F0  6403               	cpfsgt	??_gpio_pin_toggle_logic^0,c
  1135   0030F2  EF7D  F018         	goto	u4521
  1136   0030F6  EF7F  F018         	goto	u4520
  1137   0030FA                     u4521:
  1138   0030FA  EF81  F018         	goto	l4745
  1139   0030FE                     u4520:
  1140   0030FE                     l4743:
  1141                           
  1142                           ;MCAL_Layer/GPIO/hal_gpio.c: 130:     }else{
  1143   0030FE  EFA7  F018         	goto	l582
  1144   003102                     l4745:
  1145                           
  1146                           ;MCAL_Layer/GPIO/hal_gpio.c: 131:         (*lat_registers[config->port] ^=((uint8)1<<con
      +                          fig->pin));
  1147   003102  5002               	movf	gpio_pin_toggle_logic@config^0,w,c
  1148   003104  6ED9               	movwf	fsr2l,c
  1149   003106  6ADA               	clrf	fsr2h,c
  1150   003108  30DF               	rrcf	223,w,c
  1151   00310A  32E8               	rrcf	wreg,f,c
  1152   00310C  32E8               	rrcf	wreg,f,c
  1153   00310E  0B07               	andlw	7
  1154   003110  6E03               	movwf	??_gpio_pin_toggle_logic^0,c
  1155   003112  0E01               	movlw	1
  1156   003114  6E04               	movwf	(??_gpio_pin_toggle_logic+1)^0,c
  1157   003116  2A03               	incf	??_gpio_pin_toggle_logic^0,f,c
  1158   003118  EF90  F018         	goto	u4534
  1159   00311C                     u4535:
  1160   00311C  90D8               	bcf	status,0,c
  1161   00311E  3604               	rlcf	(??_gpio_pin_toggle_logic+1)^0,f,c
  1162   003120                     u4534:
  1163   003120  2E03               	decfsz	??_gpio_pin_toggle_logic^0,f,c
  1164   003122  EF8E  F018         	goto	u4535
  1165   003126  5002               	movf	gpio_pin_toggle_logic@config^0,w,c
  1166   003128  6ED9               	movwf	fsr2l,c
  1167   00312A  6ADA               	clrf	fsr2h,c
  1168   00312C  50DF               	movf	223,w,c
  1169   00312E  0B07               	andlw	7
  1170   003130  0D02               	mullw	2
  1171   003132  50F3               	movf	243,w,c
  1172   003134  0F8A               	addlw	low _lat_registers
  1173   003136  6ED9               	movwf	fsr2l,c
  1174   003138  6ADA               	clrf	fsr2h,c
  1175   00313A  CFDE F005          	movff	postinc2,??_gpio_pin_toggle_logic+2
  1176   00313E  CFDD F006          	movff	postdec2,??_gpio_pin_toggle_logic+3
  1177   003142  C005  FFD9         	movff	??_gpio_pin_toggle_logic+2,fsr2l
  1178   003146  C006  FFDA         	movff	??_gpio_pin_toggle_logic+3,fsr2h
  1179   00314A  5004               	movf	(??_gpio_pin_toggle_logic+1)^0,w,c
  1180   00314C  1ADF               	xorwf	indf2,f,c
  1181   00314E                     l582:
  1182   00314E  0012               	return		;funcret
  1183   003150                     __end_of_gpio_pin_toggle_logic:
  1184                           	callstack 0
  1185                           
  1186 ;; *************** function _application_initialize *****************
  1187 ;; Defined at:
  1188 ;;		line 58 in file "application.c"
  1189 ;; Parameters:    Size  Location     Type
  1190 ;;		None
  1191 ;; Auto vars:     Size  Location     Type
  1192 ;;  retVal          1    0        unsigned char 
  1193 ;; Return value:  Size  Location     Type
  1194 ;;                  1    wreg      void 
  1195 ;; Registers used:
  1196 ;;		wreg, fsr2l, fsr2h, status,2, status,0, prodl, prodh, cstack
  1197 ;; Tracked objects:
  1198 ;;		On entry : 0/0
  1199 ;;		On exit  : 0/0
  1200 ;;		Unchanged: 0/0
  1201 ;; Data sizes:     COMRAM   BANK0   BANK1   BANK2   BANK3   BANK4   BANK5   BANK6   BANK7   BANK8   BANK9  BANK10  BANK1
      +1  BANK12  BANK13  BANK14  BANK15
  1202 ;;      Params:         0       0       0       0       0       0       0       0       0       0       0       0       
      +0       0       0       0       0
  1203 ;;      Locals:         0       0       0       0       0       0       0       0       0       0       0       0       
      +0       0       0       0       0
  1204 ;;      Temps:          0       0       0       0       0       0       0       0       0       0       0       0       
      +0       0       0       0       0
  1205 ;;      Totals:         0       0       0       0       0       0       0       0       0       0       0       0       
      +0       0       0       0       0
  1206 ;;Total ram usage:        0 bytes
  1207 ;; Hardware stack levels used: 1
  1208 ;; Hardware stack levels required when called: 6
  1209 ;; This function calls:
  1210 ;;		_ecu_layer_initialize
  1211 ;;		_mcal_layer_initialize
  1212 ;; This function is called by:
  1213 ;;		_main
  1214 ;; This function uses a non-reentrant model
  1215 ;;
  1216                           
  1217                           	psect	text4
  1218   0035BC                     __ptext4:
  1219                           	callstack 0
  1220   0035BC                     _application_initialize:
  1221                           	callstack 24
  1222   0035BC                     
  1223                           ;application.c: 60:     ecu_layer_initialize();
  1224   0035BC  ECD5  F01A         	call	_ecu_layer_initialize	;wreg free
  1225   0035C0                     
  1226                           ;application.c: 61:     mcal_layer_initialize();
  1227   0035C0  EC94  F01A         	call	_mcal_layer_initialize	;wreg free
  1228   0035C4  0012               	return		;funcret
  1229   0035C6                     __end_of_application_initialize:
  1230                           	callstack 0
  1231                           
  1232 ;; *************** function _mcal_layer_initialize *****************
  1233 ;; Defined at:
  1234 ;;		line 60 in file "MCAL_Layer/mcal_layer_initialize.c"
  1235 ;; Parameters:    Size  Location     Type
  1236 ;;		None
  1237 ;; Auto vars:     Size  Location     Type
  1238 ;;  retVal          1    0        unsigned char 
  1239 ;; Return value:  Size  Location     Type
  1240 ;;                  1    wreg      void 
  1241 ;; Registers used:
  1242 ;;		wreg, fsr2l, fsr2h, status,2, status,0, prodl, prodh, cstack
  1243 ;; Tracked objects:
  1244 ;;		On entry : 0/0
  1245 ;;		On exit  : 0/0
  1246 ;;		Unchanged: 0/0
  1247 ;; Data sizes:     COMRAM   BANK0   BANK1   BANK2   BANK3   BANK4   BANK5   BANK6   BANK7   BANK8   BANK9  BANK10  BANK1
      +1  BANK12  BANK13  BANK14  BANK15
  1248 ;;      Params:         0       0       0       0       0       0       0       0       0       0       0       0       
      +0       0       0       0       0
  1249 ;;      Locals:         0       0       0       0       0       0       0       0       0       0       0       0       
      +0       0       0       0       0
  1250 ;;      Temps:          0       0       0       0       0       0       0       0       0       0       0       0       
      +0       0       0       0       0
  1251 ;;      Totals:         0       0       0       0       0       0       0       0       0       0       0       0       
      +0       0       0       0       0
  1252 ;;Total ram usage:        0 bytes
  1253 ;; Hardware stack levels used: 1
  1254 ;; Hardware stack levels required when called: 5
  1255 ;; This function calls:
  1256 ;;		_CCP_Init
  1257 ;;		_EUSART_ASYNC_Init
  1258 ;;		_Timer2_Init
  1259 ;; This function is called by:
  1260 ;;		_application_initialize
  1261 ;; This function uses a non-reentrant model
  1262 ;;
  1263                           
  1264                           	psect	text5
  1265   003528                     __ptext5:
  1266                           	callstack 0
  1267   003528                     _mcal_layer_initialize:
  1268                           	callstack 24
  1269   003528  0E9E               	movlw	low _eusart_1
  1270   00352A  6E68               	movwf	EUSART_ASYNC_Init@_eusart_obj^0,c
  1271   00352C  EC38  F01A         	call	_EUSART_ASYNC_Init	;wreg free
  1272   003530  0EAE               	movlw	low _ccp1_pwm
  1273   003532  6E67               	movwf	CCP_Init@_ccp_obj^0,c
  1274   003534  EC4F  F017         	call	_CCP_Init	;wreg free
  1275   003538  0EDE               	movlw	low _timer
  1276   00353A  6E02               	movwf	Timer2_Init@timer2^0,c
  1277   00353C  EC1F  F018         	call	_Timer2_Init	;wreg free
  1278   003540  0012               	return		;funcret
  1279   003542                     __end_of_mcal_layer_initialize:
  1280                           	callstack 0
  1281                           
  1282 ;; *************** function _Timer2_Init *****************
  1283 ;; Defined at:
  1284 ;;		line 23 in file "MCAL_Layer/Timer2/hal_timer2.c"
  1285 ;; Parameters:    Size  Location     Type
  1286 ;;  timer2          1    1[COMRAM] PTR const struct .
  1287 ;;		 -> timer(5), 
  1288 ;; Auto vars:     Size  Location     Type
  1289 ;;  retVal          1    3[COMRAM] unsigned char 
  1290 ;; Return value:  Size  Location     Type
  1291 ;;                  1    wreg      unsigned char 
  1292 ;; Registers used:
  1293 ;;		wreg, fsr2l, fsr2h, status,2, status,0
  1294 ;; Tracked objects:
  1295 ;;		On entry : 0/0
  1296 ;;		On exit  : 0/0
  1297 ;;		Unchanged: 0/0
  1298 ;; Data sizes:     COMRAM   BANK0   BANK1   BANK2   BANK3   BANK4   BANK5   BANK6   BANK7   BANK8   BANK9  BANK10  BANK1
      +1  BANK12  BANK13  BANK14  BANK15
  1299 ;;      Params:         1       0       0       0       0       0       0       0       0       0       0       0       
      +0       0       0       0       0
  1300 ;;      Locals:         1       0       0       0       0       0       0       0       0       0       0       0       
      +0       0       0       0       0
  1301 ;;      Temps:          1       0       0       0       0       0       0       0       0       0       0       0       
      +0       0       0       0       0
  1302 ;;      Totals:         3       0       0       0       0       0       0       0       0       0       0       0       
      +0       0       0       0       0
  1303 ;;Total ram usage:        3 bytes
  1304 ;; Hardware stack levels used: 1
  1305 ;; Hardware stack levels required when called: 2
  1306 ;; This function calls:
  1307 ;;		Nothing
  1308 ;; This function is called by:
  1309 ;;		_mcal_layer_initialize
  1310 ;; This function uses a non-reentrant model
  1311 ;;
  1312                           
  1313                           	psect	text6
  1314   00303E                     __ptext6:
  1315                           	callstack 0
  1316   00303E                     _Timer2_Init:
  1317                           	callstack 26
  1318   00303E                     
  1319                           ;MCAL_Layer/Timer2/hal_timer2.c: 25:     if(((void*)0) == timer2){
  1320   00303E  5002               	movf	Timer2_Init@timer2^0,w,c
  1321   003040  A4D8               	btfss	status,2,c
  1322   003042  EF25  F018         	goto	u4501
  1323   003046  EF27  F018         	goto	u4500
  1324   00304A                     u4501:
  1325   00304A  EF2B  F018         	goto	l980
  1326   00304E                     u4500:
  1327   00304E                     
  1328                           ;MCAL_Layer/Timer2/hal_timer2.c: 26:         retVal = (Std_ReturnType)0x00;
  1329   00304E  0E00               	movlw	0
  1330   003050  6E04               	movwf	Timer2_Init@retVal^0,c
  1331                           
  1332                           ;MCAL_Layer/Timer2/hal_timer2.c: 27:     }
  1333   003052  EF65  F018         	goto	l4735
  1334   003056                     l980:
  1335                           
  1336                           ;MCAL_Layer/Timer2/hal_timer2.c: 30:         (T2CONbits.TMR2ON = 0);
  1337   003056  94CA               	bcf	202,2,c	;volatile
  1338   003058                     
  1339                           ;MCAL_Layer/Timer2/hal_timer2.c: 32:         (T2CONbits.T2CKPS = timer2->timer2_prescale
      +                          r);
  1340   003058  5002               	movf	Timer2_Init@timer2^0,w,c
  1341   00305A  6ED9               	movwf	fsr2l,c
  1342   00305C  6ADA               	clrf	fsr2h,c
  1343   00305E  0E04               	movlw	4
  1344   003060  26D9               	addwf	fsr2l,f,c
  1345   003062  38DF               	swapf	223,w,c
  1346   003064  0B03               	andlw	3
  1347   003066  6E03               	movwf	??_Timer2_Init^0,c
  1348   003068  50CA               	movf	202,w,c	;volatile
  1349   00306A  1803               	xorwf	??_Timer2_Init^0,w,c
  1350   00306C  0BFC               	andlw	-4
  1351   00306E  1803               	xorwf	??_Timer2_Init^0,w,c
  1352   003070  6ECA               	movwf	202,c	;volatile
  1353                           
  1354                           ;MCAL_Layer/Timer2/hal_timer2.c: 34:         (T2CONbits.TOUTPS = timer2->timer2_postscal
      +                          er);
  1355   003072  5002               	movf	Timer2_Init@timer2^0,w,c
  1356   003074  6ED9               	movwf	fsr2l,c
  1357   003076  6ADA               	clrf	fsr2h,c
  1358   003078  0E04               	movlw	4
  1359   00307A  26D9               	addwf	fsr2l,f,c
  1360   00307C  50DF               	movf	223,w,c
  1361   00307E  0B0F               	andlw	15
  1362   003080  6E03               	movwf	??_Timer2_Init^0,c
  1363   003082  4603               	rlncf	??_Timer2_Init^0,f,c
  1364   003084  4603               	rlncf	??_Timer2_Init^0,f,c
  1365   003086  4603               	rlncf	??_Timer2_Init^0,f,c
  1366   003088  50CA               	movf	202,w,c	;volatile
  1367   00308A  1803               	xorwf	??_Timer2_Init^0,w,c
  1368   00308C  0B87               	andlw	-121
  1369   00308E  1803               	xorwf	??_Timer2_Init^0,w,c
  1370   003090  6ECA               	movwf	202,c	;volatile
  1371                           
  1372                           ;MCAL_Layer/Timer2/hal_timer2.c: 36:         TMR2 = timer2->timer2_preload_value;
  1373   003092  5002               	movf	Timer2_Init@timer2^0,w,c
  1374   003094  6ED9               	movwf	fsr2l,c
  1375   003096  6ADA               	clrf	fsr2h,c
  1376   003098  0E03               	movlw	3
  1377   00309A  26D9               	addwf	fsr2l,f,c
  1378   00309C  50DF               	movf	indf2,w,c
  1379   00309E  6ECC               	movwf	204,c	;volatile
  1380                           
  1381                           ;MCAL_Layer/Timer2/hal_timer2.c: 37:         timer2_preload = timer2->timer2_preload_val
      +                          ue;
  1382   0030A0  5002               	movf	Timer2_Init@timer2^0,w,c
  1383   0030A2  6ED9               	movwf	fsr2l,c
  1384   0030A4  6ADA               	clrf	fsr2h,c
  1385   0030A6  0E03               	movlw	3
  1386   0030A8  26D9               	addwf	fsr2l,f,c
  1387   0030AA  50DF               	movf	indf2,w,c
  1388   0030AC  6E72               	movwf	_timer2_preload^0,c	;volatile
  1389   0030AE                     
  1390                           ;MCAL_Layer/Timer2/hal_timer2.c: 40:         (PIE1bits.TMR2IE = 1);
  1391   0030AE  829D               	bsf	157,1,c	;volatile
  1392   0030B0                     
  1393                           ;MCAL_Layer/Timer2/hal_timer2.c: 41:         (PIR1bits.TMR2IF = 0);
  1394   0030B0  929E               	bcf	158,1,c	;volatile
  1395   0030B2                     
  1396                           ;MCAL_Layer/Timer2/hal_timer2.c: 42:         TMR2_InterruptHandler = timer2->TMR2_Interr
      +                          uptHandler;
  1397   0030B2  5002               	movf	Timer2_Init@timer2^0,w,c
  1398   0030B4  6ED9               	movwf	fsr2l,c
  1399   0030B6  6ADA               	clrf	fsr2h,c
  1400   0030B8  CFDE F0BC          	movff	postinc2,_TMR2_InterruptHandler
  1401   0030BC  CFDD F0BD          	movff	postdec2,_TMR2_InterruptHandler+1
  1402   0030C0                     
  1403                           ;MCAL_Layer/Timer2/hal_timer2.c: 55:         (INTCONbits.GIE = 1);
  1404   0030C0  8EF2               	bsf	242,7,c	;volatile
  1405   0030C2                     
  1406                           ;MCAL_Layer/Timer2/hal_timer2.c: 56:         (INTCONbits.PEIE = 1);
  1407   0030C2  8CF2               	bsf	242,6,c	;volatile
  1408   0030C4                     
  1409                           ;MCAL_Layer/Timer2/hal_timer2.c: 60:         (T2CONbits.TMR2ON = 1);
  1410   0030C4  84CA               	bsf	202,2,c	;volatile
  1411   0030C6                     
  1412                           ;MCAL_Layer/Timer2/hal_timer2.c: 61:         retVal = (Std_ReturnType)0x01;
  1413   0030C6  0E01               	movlw	1
  1414   0030C8  6E04               	movwf	Timer2_Init@retVal^0,c
  1415   0030CA                     l4735:
  1416                           
  1417                           ;MCAL_Layer/Timer2/hal_timer2.c: 63:     return retVal;
  1418   0030CA  5004               	movf	Timer2_Init@retVal^0,w,c
  1419   0030CC  0012               	return		;funcret
  1420   0030CE                     __end_of_Timer2_Init:
  1421                           	callstack 0
  1422                           
  1423 ;; *************** function _EUSART_ASYNC_Init *****************
  1424 ;; Defined at:
  1425 ;;		line 32 in file "MCAL_Layer/EUSART/hal_eusart.c"
  1426 ;; Parameters:    Size  Location     Type
  1427 ;;  _eusart_obj     1  103[COMRAM] PTR const struct .
  1428 ;;		 -> eusart_1(16), 
  1429 ;; Auto vars:     Size  Location     Type
  1430 ;;  retVal          1  104[COMRAM] unsigned char 
  1431 ;; Return value:  Size  Location     Type
  1432 ;;                  1    wreg      unsigned char 
  1433 ;; Registers used:
  1434 ;;		wreg, fsr2l, fsr2h, status,2, status,0, cstack
  1435 ;; Tracked objects:
  1436 ;;		On entry : 0/0
  1437 ;;		On exit  : 0/0
  1438 ;;		Unchanged: 0/0
  1439 ;; Data sizes:     COMRAM   BANK0   BANK1   BANK2   BANK3   BANK4   BANK5   BANK6   BANK7   BANK8   BANK9  BANK10  BANK1
      +1  BANK12  BANK13  BANK14  BANK15
  1440 ;;      Params:         1       0       0       0       0       0       0       0       0       0       0       0       
      +0       0       0       0       0
  1441 ;;      Locals:         1       0       0       0       0       0       0       0       0       0       0       0       
      +0       0       0       0       0
  1442 ;;      Temps:          0       0       0       0       0       0       0       0       0       0       0       0       
      +0       0       0       0       0
  1443 ;;      Totals:         2       0       0       0       0       0       0       0       0       0       0       0       
      +0       0       0       0       0
  1444 ;;Total ram usage:        2 bytes
  1445 ;; Hardware stack levels used: 1
  1446 ;; Hardware stack levels required when called: 4
  1447 ;; This function calls:
  1448 ;;		_EUSART_ASYNC_RX_Init
  1449 ;;		_EUSART_ASYNC_TX_Init
  1450 ;;		_EUSART_Baud_Rate_Calculation
  1451 ;; This function is called by:
  1452 ;;		_mcal_layer_initialize
  1453 ;; This function uses a non-reentrant model
  1454 ;;
  1455                           
  1456                           	psect	text7
  1457   003470                     __ptext7:
  1458                           	callstack 0
  1459   003470                     _EUSART_ASYNC_Init:
  1460                           	callstack 24
  1461   003470                     
  1462                           ;MCAL_Layer/EUSART/hal_eusart.c: 34:     if(((void*)0) == _eusart_obj){
  1463   003470  5068               	movf	EUSART_ASYNC_Init@_eusart_obj^0,w,c
  1464   003472  A4D8               	btfss	status,2,c
  1465   003474  EF3E  F01A         	goto	u4491
  1466   003478  EF40  F01A         	goto	u4490
  1467   00347C                     u4491:
  1468   00347C  EF44  F01A         	goto	l387
  1469   003480                     u4490:
  1470   003480                     
  1471                           ;MCAL_Layer/EUSART/hal_eusart.c: 35:         retVal = (Std_ReturnType)0x00;
  1472   003480  0E00               	movlw	0
  1473   003482  6E69               	movwf	EUSART_ASYNC_Init@retVal^0,c
  1474                           
  1475                           ;MCAL_Layer/EUSART/hal_eusart.c: 36:     }
  1476   003484  EF59  F01A         	goto	l4711
  1477   003488                     l387:
  1478                           
  1479                           ;MCAL_Layer/EUSART/hal_eusart.c: 39:         RCSTAbits.SPEN = 0;
  1480   003488  9EAB               	bcf	171,7,c	;volatile
  1481                           
  1482                           ;MCAL_Layer/EUSART/hal_eusart.c: 41:         TRISCbits.RC7 = 1;
  1483   00348A  8E94               	bsf	148,7,c	;volatile
  1484                           
  1485                           ;MCAL_Layer/EUSART/hal_eusart.c: 42:         TRISCbits.RC6 = 1;
  1486   00348C  8C94               	bsf	148,6,c	;volatile
  1487   00348E                     
  1488                           ;MCAL_Layer/EUSART/hal_eusart.c: 44:         retVal = EUSART_Baud_Rate_Calculation(_eusa
      +                          rt_obj);
  1489   00348E  C068  F05C         	movff	EUSART_ASYNC_Init@_eusart_obj,EUSART_Baud_Rate_Calculation@_eusart_obj
  1490   003492  EC01  F008         	call	_EUSART_Baud_Rate_Calculation	;wreg free
  1491   003496  6E69               	movwf	EUSART_ASYNC_Init@retVal^0,c
  1492                           
  1493                           ;MCAL_Layer/EUSART/hal_eusart.c: 46:         retVal = EUSART_ASYNC_TX_Init(_eusart_obj);
  1494   003498  C068  F002         	movff	EUSART_ASYNC_Init@_eusart_obj,EUSART_ASYNC_TX_Init@_eusart_obj
  1495   00349C  ECBE  F017         	call	_EUSART_ASYNC_TX_Init	;wreg free
  1496   0034A0  6E69               	movwf	EUSART_ASYNC_Init@retVal^0,c
  1497                           
  1498                           ;MCAL_Layer/EUSART/hal_eusart.c: 48:         retVal = EUSART_ASYNC_RX_Init(_eusart_obj);
  1499   0034A2  C068  F002         	movff	EUSART_ASYNC_Init@_eusart_obj,EUSART_ASYNC_RX_Init@_eusart_obj
  1500   0034A6  ECDC  F016         	call	_EUSART_ASYNC_RX_Init	;wreg free
  1501   0034AA  6E69               	movwf	EUSART_ASYNC_Init@retVal^0,c
  1502   0034AC                     
  1503                           ;MCAL_Layer/EUSART/hal_eusart.c: 50:         RCSTAbits.SPEN = 1;
  1504   0034AC  8EAB               	bsf	171,7,c	;volatile
  1505   0034AE                     
  1506                           ;MCAL_Layer/EUSART/hal_eusart.c: 51:         retVal = (Std_ReturnType)0x01;
  1507   0034AE  0E01               	movlw	1
  1508   0034B0  6E69               	movwf	EUSART_ASYNC_Init@retVal^0,c
  1509   0034B2                     l4711:
  1510                           
  1511                           ;MCAL_Layer/EUSART/hal_eusart.c: 53:     return retVal;
  1512   0034B2  5069               	movf	EUSART_ASYNC_Init@retVal^0,w,c
  1513   0034B4  0012               	return		;funcret
  1514   0034B6                     __end_of_EUSART_ASYNC_Init:
  1515                           	callstack 0
  1516                           
  1517 ;; *************** function _EUSART_Baud_Rate_Calculation *****************
  1518 ;; Defined at:
  1519 ;;		line 234 in file "MCAL_Layer/EUSART/hal_eusart.c"
  1520 ;; Parameters:    Size  Location     Type
  1521 ;;  _eusart_obj     1   91[COMRAM] PTR const struct .
  1522 ;;		 -> eusart_1(16), 
  1523 ;; Auto vars:     Size  Location     Type
  1524 ;;  baud_rate_te    4   95[COMRAM] float 
  1525 ;;  retVal          1   94[COMRAM] unsigned char 
  1526 ;; Return value:  Size  Location     Type
  1527 ;;                  1    wreg      unsigned char 
  1528 ;; Registers used:
  1529 ;;		wreg, fsr2l, fsr2h, status,2, status,0, cstack
  1530 ;; Tracked objects:
  1531 ;;		On entry : 0/0
  1532 ;;		On exit  : 0/0
  1533 ;;		Unchanged: 0/0
  1534 ;; Data sizes:     COMRAM   BANK0   BANK1   BANK2   BANK3   BANK4   BANK5   BANK6   BANK7   BANK8   BANK9  BANK10  BANK1
      +1  BANK12  BANK13  BANK14  BANK15
  1535 ;;      Params:         1       0       0       0       0       0       0       0       0       0       0       0       
      +0       0       0       0       0
  1536 ;;      Locals:         9       0       0       0       0       0       0       0       0       0       0       0       
      +0       0       0       0       0
  1537 ;;      Temps:          2       0       0       0       0       0       0       0       0       0       0       0       
      +0       0       0       0       0
  1538 ;;      Totals:        12       0       0       0       0       0       0       0       0       0       0       0       
      +0       0       0       0       0
  1539 ;;Total ram usage:       12 bytes
  1540 ;; Hardware stack levels used: 1
  1541 ;; Hardware stack levels required when called: 3
  1542 ;; This function calls:
  1543 ;;		___fladd
  1544 ;;		___fldiv
  1545 ;;		___fltol
  1546 ;;		___xxtofl
  1547 ;; This function is called by:
  1548 ;;		_EUSART_ASYNC_Init
  1549 ;; This function uses a non-reentrant model
  1550 ;;
  1551                           
  1552                           	psect	text8
  1553   001002                     __ptext8:
  1554                           	callstack 0
  1555   001002                     _EUSART_Baud_Rate_Calculation:
  1556                           	callstack 24
  1557   001002                     
  1558                           ;MCAL_Layer/EUSART/hal_eusart.c: 236:     float baud_rate_temp = 0;
  1559   001002  0E00               	movlw	0
  1560   001004  6E60               	movwf	EUSART_Baud_Rate_Calculation@baud_rate_temp^0,c
  1561   001006  0E00               	movlw	0
  1562   001008  6E61               	movwf	(EUSART_Baud_Rate_Calculation@baud_rate_temp+1)^0,c
  1563   00100A  0E00               	movlw	0
  1564   00100C  6E62               	movwf	(EUSART_Baud_Rate_Calculation@baud_rate_temp+2)^0,c
  1565   00100E  0E00               	movlw	0
  1566   001010  6E63               	movwf	(EUSART_Baud_Rate_Calculation@baud_rate_temp+3)^0,c
  1567                           
  1568                           ;MCAL_Layer/EUSART/hal_eusart.c: 237:     if(((void*)0) == _eusart_obj){
  1569   001012  505C               	movf	EUSART_Baud_Rate_Calculation@_eusart_obj^0,w,c
  1570   001014  A4D8               	btfss	status,2,c
  1571   001016  EF0F  F008         	goto	u4281
  1572   00101A  EF11  F008         	goto	u4280
  1573   00101E                     u4281:
  1574   00101E  EF37  F00A         	goto	l4567
  1575   001022                     u4280:
  1576   001022                     
  1577                           ;MCAL_Layer/EUSART/hal_eusart.c: 238:         retVal = (Std_ReturnType)0x00;
  1578   001022  0E00               	movlw	0
  1579   001024  6E5F               	movwf	EUSART_Baud_Rate_Calculation@retVal^0,c
  1580                           
  1581                           ;MCAL_Layer/EUSART/hal_eusart.c: 239:     }
  1582   001026  EF7E  F00A         	goto	l4573
  1583   00102A                     l457:
  1584                           
  1585                           ;MCAL_Layer/EUSART/hal_eusart.c: 243:                 TXSTAbits.SYNC = 0;
  1586   00102A  98AC               	bcf	172,4,c	;volatile
  1587                           
  1588                           ;MCAL_Layer/EUSART/hal_eusart.c: 244:                 TXSTAbits.BRGH = 0;
  1589   00102C  94AC               	bcf	172,2,c	;volatile
  1590                           
  1591                           ;MCAL_Layer/EUSART/hal_eusart.c: 245:                 BAUDCONbits.BRG16 = 0;
  1592   00102E  96B8               	bcf	184,3,c	;volatile
  1593   001030                     
  1594                           ;MCAL_Layer/EUSART/hal_eusart.c: 246:                 baud_rate_temp = ((8000000UL / (fl
      +                          oat)(_eusart_obj->baudrate)) / 64) - 1;
  1595   001030  505C               	movf	EUSART_Baud_Rate_Calculation@_eusart_obj^0,w,c
  1596   001032  6ED9               	movwf	fsr2l,c
  1597   001034  6ADA               	clrf	fsr2h,c
  1598   001036  CFDE F05D          	movff	postinc2,??_EUSART_Baud_Rate_Calculation
  1599   00103A  CFDD F05E          	movff	postdec2,??_EUSART_Baud_Rate_Calculation+1
  1600   00103E  C05D  F002         	movff	??_EUSART_Baud_Rate_Calculation,___xxtofl@val
  1601   001042  C05E  F003         	movff	??_EUSART_Baud_Rate_Calculation+1,___xxtofl@val+1
  1602   001046  6A04               	clrf	(___xxtofl@val+2)^0,c
  1603   001048  6A05               	clrf	(___xxtofl@val+3)^0,c
  1604   00104A  0E00               	movlw	0
  1605   00104C  EC4A  F013         	call	___xxtofl
  1606   001050  C002  F02D         	movff	?___xxtofl,___fldiv@a
  1607   001054  C003  F02E         	movff	?___xxtofl+1,___fldiv@a+1
  1608   001058  C004  F02F         	movff	?___xxtofl+2,___fldiv@a+2
  1609   00105C  C005  F030         	movff	?___xxtofl+3,___fldiv@a+3
  1610   001060  0E00               	movlw	0
  1611   001062  6E29               	movwf	___fldiv@b^0,c
  1612   001064  0E24               	movlw	36
  1613   001066  6E2A               	movwf	(___fldiv@b+1)^0,c
  1614   001068  0EF4               	movlw	244
  1615   00106A  6E2B               	movwf	(___fldiv@b+2)^0,c
  1616   00106C  0E4A               	movlw	74
  1617   00106E  6E2C               	movwf	(___fldiv@b+3)^0,c
  1618   001070  ECF5  F00E         	call	___fldiv	;wreg free
  1619   001074  C029  F064         	movff	?___fldiv,_EUSART_Baud_Rate_Calculation$3533
  1620   001078  C02A  F065         	movff	?___fldiv+1,_EUSART_Baud_Rate_Calculation$3533+1
  1621   00107C  C02B  F066         	movff	?___fldiv+2,_EUSART_Baud_Rate_Calculation$3533+2
  1622   001080  C02C  F067         	movff	?___fldiv+3,_EUSART_Baud_Rate_Calculation$3533+3
  1623   001084                     
  1624                           ;MCAL_Layer/EUSART/hal_eusart.c: 246:                 baud_rate_temp = ((8000000UL / (fl
      +                          oat)(_eusart_obj->baudrate)) / 64) - 1;
  1625   001084  0E00               	movlw	0
  1626   001086  6E2D               	movwf	___fldiv@a^0,c
  1627   001088  0E00               	movlw	0
  1628   00108A  6E2E               	movwf	(___fldiv@a+1)^0,c
  1629   00108C  0E80               	movlw	128
  1630   00108E  6E2F               	movwf	(___fldiv@a+2)^0,c
  1631   001090  0E42               	movlw	66
  1632   001092  6E30               	movwf	(___fldiv@a+3)^0,c
  1633   001094  C064  F029         	movff	_EUSART_Baud_Rate_Calculation$3533,___fldiv@b
  1634   001098  C065  F02A         	movff	_EUSART_Baud_Rate_Calculation$3533+1,___fldiv@b+1
  1635   00109C  C066  F02B         	movff	_EUSART_Baud_Rate_Calculation$3533+2,___fldiv@b+2
  1636   0010A0  C067  F02C         	movff	_EUSART_Baud_Rate_Calculation$3533+3,___fldiv@b+3
  1637   0010A4  ECF5  F00E         	call	___fldiv	;wreg free
  1638   0010A8  C029  F042         	movff	?___fldiv,___fladd@b
  1639   0010AC  C02A  F043         	movff	?___fldiv+1,___fladd@b+1
  1640   0010B0  C02B  F044         	movff	?___fldiv+2,___fladd@b+2
  1641   0010B4  C02C  F045         	movff	?___fldiv+3,___fladd@b+3
  1642   0010B8  0E00               	movlw	0
  1643   0010BA  6E46               	movwf	___fladd@a^0,c
  1644   0010BC  0E00               	movlw	0
  1645   0010BE  6E47               	movwf	(___fladd@a+1)^0,c
  1646   0010C0  0E80               	movlw	128
  1647   0010C2  6E48               	movwf	(___fladd@a+2)^0,c
  1648   0010C4  0EBF               	movlw	191
  1649   0010C6  6E49               	movwf	(___fladd@a+3)^0,c
  1650   0010C8  EC80  F00A         	call	___fladd	;wreg free
  1651   0010CC  C042  F060         	movff	?___fladd,EUSART_Baud_Rate_Calculation@baud_rate_temp
  1652   0010D0  C043  F061         	movff	?___fladd+1,EUSART_Baud_Rate_Calculation@baud_rate_temp+1
  1653   0010D4  C044  F062         	movff	?___fladd+2,EUSART_Baud_Rate_Calculation@baud_rate_temp+2
  1654   0010D8  C045  F063         	movff	?___fladd+3,EUSART_Baud_Rate_Calculation@baud_rate_temp+3
  1655                           
  1656                           ;MCAL_Layer/EUSART/hal_eusart.c: 247:                 break;
  1657   0010DC  EF61  F00A         	goto	l4569
  1658   0010E0                     l459:
  1659                           
  1660                           ;MCAL_Layer/EUSART/hal_eusart.c: 249:                 TXSTAbits.SYNC = 0;
  1661   0010E0  98AC               	bcf	172,4,c	;volatile
  1662                           
  1663                           ;MCAL_Layer/EUSART/hal_eusart.c: 250:                 TXSTAbits.BRGH = 1;
  1664   0010E2  84AC               	bsf	172,2,c	;volatile
  1665                           
  1666                           ;MCAL_Layer/EUSART/hal_eusart.c: 251:                 BAUDCONbits.BRG16 = 0;
  1667   0010E4  96B8               	bcf	184,3,c	;volatile
  1668   0010E6                     
  1669                           ;MCAL_Layer/EUSART/hal_eusart.c: 252:                 baud_rate_temp = ((8000000UL / (fl
      +                          oat)(_eusart_obj->baudrate)) / 16) - 1;
  1670   0010E6  505C               	movf	EUSART_Baud_Rate_Calculation@_eusart_obj^0,w,c
  1671   0010E8  6ED9               	movwf	fsr2l,c
  1672   0010EA  6ADA               	clrf	fsr2h,c
  1673   0010EC  CFDE F05D          	movff	postinc2,??_EUSART_Baud_Rate_Calculation
  1674   0010F0  CFDD F05E          	movff	postdec2,??_EUSART_Baud_Rate_Calculation+1
  1675   0010F4  C05D  F002         	movff	??_EUSART_Baud_Rate_Calculation,___xxtofl@val
  1676   0010F8  C05E  F003         	movff	??_EUSART_Baud_Rate_Calculation+1,___xxtofl@val+1
  1677   0010FC  6A04               	clrf	(___xxtofl@val+2)^0,c
  1678   0010FE  6A05               	clrf	(___xxtofl@val+3)^0,c
  1679   001100  0E00               	movlw	0
  1680   001102  EC4A  F013         	call	___xxtofl
  1681   001106  C002  F02D         	movff	?___xxtofl,___fldiv@a
  1682   00110A  C003  F02E         	movff	?___xxtofl+1,___fldiv@a+1
  1683   00110E  C004  F02F         	movff	?___xxtofl+2,___fldiv@a+2
  1684   001112  C005  F030         	movff	?___xxtofl+3,___fldiv@a+3
  1685   001116  0E00               	movlw	0
  1686   001118  6E29               	movwf	___fldiv@b^0,c
  1687   00111A  0E24               	movlw	36
  1688   00111C  6E2A               	movwf	(___fldiv@b+1)^0,c
  1689   00111E  0EF4               	movlw	244
  1690   001120  6E2B               	movwf	(___fldiv@b+2)^0,c
  1691   001122  0E4A               	movlw	74
  1692   001124  6E2C               	movwf	(___fldiv@b+3)^0,c
  1693   001126  ECF5  F00E         	call	___fldiv	;wreg free
  1694   00112A  C029  F064         	movff	?___fldiv,_EUSART_Baud_Rate_Calculation$3533
  1695   00112E  C02A  F065         	movff	?___fldiv+1,_EUSART_Baud_Rate_Calculation$3533+1
  1696   001132  C02B  F066         	movff	?___fldiv+2,_EUSART_Baud_Rate_Calculation$3533+2
  1697   001136  C02C  F067         	movff	?___fldiv+3,_EUSART_Baud_Rate_Calculation$3533+3
  1698   00113A                     
  1699                           ;MCAL_Layer/EUSART/hal_eusart.c: 252:                 baud_rate_temp = ((8000000UL / (fl
      +                          oat)(_eusart_obj->baudrate)) / 16) - 1;
  1700   00113A  0E00               	movlw	0
  1701   00113C  6E2D               	movwf	___fldiv@a^0,c
  1702   00113E  0E00               	movlw	0
  1703   001140  6E2E               	movwf	(___fldiv@a+1)^0,c
  1704   001142  0E80               	movlw	128
  1705   001144  6E2F               	movwf	(___fldiv@a+2)^0,c
  1706   001146  0E41               	movlw	65
  1707   001148  6E30               	movwf	(___fldiv@a+3)^0,c
  1708   00114A  C064  F029         	movff	_EUSART_Baud_Rate_Calculation$3533,___fldiv@b
  1709   00114E  C065  F02A         	movff	_EUSART_Baud_Rate_Calculation$3533+1,___fldiv@b+1
  1710   001152  C066  F02B         	movff	_EUSART_Baud_Rate_Calculation$3533+2,___fldiv@b+2
  1711   001156  C067  F02C         	movff	_EUSART_Baud_Rate_Calculation$3533+3,___fldiv@b+3
  1712   00115A  ECF5  F00E         	call	___fldiv	;wreg free
  1713   00115E  C029  F042         	movff	?___fldiv,___fladd@b
  1714   001162  C02A  F043         	movff	?___fldiv+1,___fladd@b+1
  1715   001166  C02B  F044         	movff	?___fldiv+2,___fladd@b+2
  1716   00116A  C02C  F045         	movff	?___fldiv+3,___fladd@b+3
  1717   00116E  0E00               	movlw	0
  1718   001170  6E46               	movwf	___fladd@a^0,c
  1719   001172  0E00               	movlw	0
  1720   001174  6E47               	movwf	(___fladd@a+1)^0,c
  1721   001176  0E80               	movlw	128
  1722   001178  6E48               	movwf	(___fladd@a+2)^0,c
  1723   00117A  0EBF               	movlw	191
  1724   00117C  6E49               	movwf	(___fladd@a+3)^0,c
  1725   00117E  EC80  F00A         	call	___fladd	;wreg free
  1726   001182  C042  F060         	movff	?___fladd,EUSART_Baud_Rate_Calculation@baud_rate_temp
  1727   001186  C043  F061         	movff	?___fladd+1,EUSART_Baud_Rate_Calculation@baud_rate_temp+1
  1728   00118A  C044  F062         	movff	?___fladd+2,EUSART_Baud_Rate_Calculation@baud_rate_temp+2
  1729   00118E  C045  F063         	movff	?___fladd+3,EUSART_Baud_Rate_Calculation@baud_rate_temp+3
  1730                           
  1731                           ;MCAL_Layer/EUSART/hal_eusart.c: 253:                 break;
  1732   001192  EF61  F00A         	goto	l4569
  1733   001196                     l460:
  1734                           
  1735                           ;MCAL_Layer/EUSART/hal_eusart.c: 255:                 TXSTAbits.SYNC = 0;
  1736   001196  98AC               	bcf	172,4,c	;volatile
  1737                           
  1738                           ;MCAL_Layer/EUSART/hal_eusart.c: 256:                 TXSTAbits.BRGH = 0;
  1739   001198  94AC               	bcf	172,2,c	;volatile
  1740                           
  1741                           ;MCAL_Layer/EUSART/hal_eusart.c: 257:                 BAUDCONbits.BRG16 = 1;
  1742   00119A  86B8               	bsf	184,3,c	;volatile
  1743   00119C                     
  1744                           ;MCAL_Layer/EUSART/hal_eusart.c: 258:                 baud_rate_temp = ((8000000UL / (fl
      +                          oat)(_eusart_obj->baudrate)) / 16) - 1;
  1745   00119C  505C               	movf	EUSART_Baud_Rate_Calculation@_eusart_obj^0,w,c
  1746   00119E  6ED9               	movwf	fsr2l,c
  1747   0011A0  6ADA               	clrf	fsr2h,c
  1748   0011A2  CFDE F05D          	movff	postinc2,??_EUSART_Baud_Rate_Calculation
  1749   0011A6  CFDD F05E          	movff	postdec2,??_EUSART_Baud_Rate_Calculation+1
  1750   0011AA  C05D  F002         	movff	??_EUSART_Baud_Rate_Calculation,___xxtofl@val
  1751   0011AE  C05E  F003         	movff	??_EUSART_Baud_Rate_Calculation+1,___xxtofl@val+1
  1752   0011B2  6A04               	clrf	(___xxtofl@val+2)^0,c
  1753   0011B4  6A05               	clrf	(___xxtofl@val+3)^0,c
  1754   0011B6  0E00               	movlw	0
  1755   0011B8  EC4A  F013         	call	___xxtofl
  1756   0011BC  C002  F02D         	movff	?___xxtofl,___fldiv@a
  1757   0011C0  C003  F02E         	movff	?___xxtofl+1,___fldiv@a+1
  1758   0011C4  C004  F02F         	movff	?___xxtofl+2,___fldiv@a+2
  1759   0011C8  C005  F030         	movff	?___xxtofl+3,___fldiv@a+3
  1760   0011CC  0E00               	movlw	0
  1761   0011CE  6E29               	movwf	___fldiv@b^0,c
  1762   0011D0  0E24               	movlw	36
  1763   0011D2  6E2A               	movwf	(___fldiv@b+1)^0,c
  1764   0011D4  0EF4               	movlw	244
  1765   0011D6  6E2B               	movwf	(___fldiv@b+2)^0,c
  1766   0011D8  0E4A               	movlw	74
  1767   0011DA  6E2C               	movwf	(___fldiv@b+3)^0,c
  1768   0011DC  ECF5  F00E         	call	___fldiv	;wreg free
  1769   0011E0  C029  F064         	movff	?___fldiv,_EUSART_Baud_Rate_Calculation$3533
  1770   0011E4  C02A  F065         	movff	?___fldiv+1,_EUSART_Baud_Rate_Calculation$3533+1
  1771   0011E8  C02B  F066         	movff	?___fldiv+2,_EUSART_Baud_Rate_Calculation$3533+2
  1772   0011EC  C02C  F067         	movff	?___fldiv+3,_EUSART_Baud_Rate_Calculation$3533+3
  1773   0011F0                     
  1774                           ;MCAL_Layer/EUSART/hal_eusart.c: 258:                 baud_rate_temp = ((8000000UL / (fl
      +                          oat)(_eusart_obj->baudrate)) / 16) - 1;
  1775   0011F0  0E00               	movlw	0
  1776   0011F2  6E2D               	movwf	___fldiv@a^0,c
  1777   0011F4  0E00               	movlw	0
  1778   0011F6  6E2E               	movwf	(___fldiv@a+1)^0,c
  1779   0011F8  0E80               	movlw	128
  1780   0011FA  6E2F               	movwf	(___fldiv@a+2)^0,c
  1781   0011FC  0E41               	movlw	65
  1782   0011FE  6E30               	movwf	(___fldiv@a+3)^0,c
  1783   001200  C064  F029         	movff	_EUSART_Baud_Rate_Calculation$3533,___fldiv@b
  1784   001204  C065  F02A         	movff	_EUSART_Baud_Rate_Calculation$3533+1,___fldiv@b+1
  1785   001208  C066  F02B         	movff	_EUSART_Baud_Rate_Calculation$3533+2,___fldiv@b+2
  1786   00120C  C067  F02C         	movff	_EUSART_Baud_Rate_Calculation$3533+3,___fldiv@b+3
  1787   001210  ECF5  F00E         	call	___fldiv	;wreg free
  1788   001214  C029  F042         	movff	?___fldiv,___fladd@b
  1789   001218  C02A  F043         	movff	?___fldiv+1,___fladd@b+1
  1790   00121C  C02B  F044         	movff	?___fldiv+2,___fladd@b+2
  1791   001220  C02C  F045         	movff	?___fldiv+3,___fladd@b+3
  1792   001224  0E00               	movlw	0
  1793   001226  6E46               	movwf	___fladd@a^0,c
  1794   001228  0E00               	movlw	0
  1795   00122A  6E47               	movwf	(___fladd@a+1)^0,c
  1796   00122C  0E80               	movlw	128
  1797   00122E  6E48               	movwf	(___fladd@a+2)^0,c
  1798   001230  0EBF               	movlw	191
  1799   001232  6E49               	movwf	(___fladd@a+3)^0,c
  1800   001234  EC80  F00A         	call	___fladd	;wreg free
  1801   001238  C042  F060         	movff	?___fladd,EUSART_Baud_Rate_Calculation@baud_rate_temp
  1802   00123C  C043  F061         	movff	?___fladd+1,EUSART_Baud_Rate_Calculation@baud_rate_temp+1
  1803   001240  C044  F062         	movff	?___fladd+2,EUSART_Baud_Rate_Calculation@baud_rate_temp+2
  1804   001244  C045  F063         	movff	?___fladd+3,EUSART_Baud_Rate_Calculation@baud_rate_temp+3
  1805                           
  1806                           ;MCAL_Layer/EUSART/hal_eusart.c: 259:                 break;
  1807   001248  EF61  F00A         	goto	l4569
  1808   00124C                     l461:
  1809                           
  1810                           ;MCAL_Layer/EUSART/hal_eusart.c: 261:                 TXSTAbits.SYNC = 0;
  1811   00124C  98AC               	bcf	172,4,c	;volatile
  1812                           
  1813                           ;MCAL_Layer/EUSART/hal_eusart.c: 262:                 TXSTAbits.BRGH = 1;
  1814   00124E  84AC               	bsf	172,2,c	;volatile
  1815                           
  1816                           ;MCAL_Layer/EUSART/hal_eusart.c: 263:                 BAUDCONbits.BRG16 = 1;
  1817   001250  86B8               	bsf	184,3,c	;volatile
  1818   001252                     
  1819                           ;MCAL_Layer/EUSART/hal_eusart.c: 264:                 baud_rate_temp = ((8000000UL / (fl
      +                          oat)(_eusart_obj->baudrate)) / 4) - 1;
  1820   001252  505C               	movf	EUSART_Baud_Rate_Calculation@_eusart_obj^0,w,c
  1821   001254  6ED9               	movwf	fsr2l,c
  1822   001256  6ADA               	clrf	fsr2h,c
  1823   001258  CFDE F05D          	movff	postinc2,??_EUSART_Baud_Rate_Calculation
  1824   00125C  CFDD F05E          	movff	postdec2,??_EUSART_Baud_Rate_Calculation+1
  1825   001260  C05D  F002         	movff	??_EUSART_Baud_Rate_Calculation,___xxtofl@val
  1826   001264  C05E  F003         	movff	??_EUSART_Baud_Rate_Calculation+1,___xxtofl@val+1
  1827   001268  6A04               	clrf	(___xxtofl@val+2)^0,c
  1828   00126A  6A05               	clrf	(___xxtofl@val+3)^0,c
  1829   00126C  0E00               	movlw	0
  1830   00126E  EC4A  F013         	call	___xxtofl
  1831   001272  C002  F02D         	movff	?___xxtofl,___fldiv@a
  1832   001276  C003  F02E         	movff	?___xxtofl+1,___fldiv@a+1
  1833   00127A  C004  F02F         	movff	?___xxtofl+2,___fldiv@a+2
  1834   00127E  C005  F030         	movff	?___xxtofl+3,___fldiv@a+3
  1835   001282  0E00               	movlw	0
  1836   001284  6E29               	movwf	___fldiv@b^0,c
  1837   001286  0E24               	movlw	36
  1838   001288  6E2A               	movwf	(___fldiv@b+1)^0,c
  1839   00128A  0EF4               	movlw	244
  1840   00128C  6E2B               	movwf	(___fldiv@b+2)^0,c
  1841   00128E  0E4A               	movlw	74
  1842   001290  6E2C               	movwf	(___fldiv@b+3)^0,c
  1843   001292  ECF5  F00E         	call	___fldiv	;wreg free
  1844   001296  C029  F064         	movff	?___fldiv,_EUSART_Baud_Rate_Calculation$3533
  1845   00129A  C02A  F065         	movff	?___fldiv+1,_EUSART_Baud_Rate_Calculation$3533+1
  1846   00129E  C02B  F066         	movff	?___fldiv+2,_EUSART_Baud_Rate_Calculation$3533+2
  1847   0012A2  C02C  F067         	movff	?___fldiv+3,_EUSART_Baud_Rate_Calculation$3533+3
  1848   0012A6                     
  1849                           ;MCAL_Layer/EUSART/hal_eusart.c: 264:                 baud_rate_temp = ((8000000UL / (fl
      +                          oat)(_eusart_obj->baudrate)) / 4) - 1;
  1850   0012A6  0E00               	movlw	0
  1851   0012A8  6E2D               	movwf	___fldiv@a^0,c
  1852   0012AA  0E00               	movlw	0
  1853   0012AC  6E2E               	movwf	(___fldiv@a+1)^0,c
  1854   0012AE  0E80               	movlw	128
  1855   0012B0  6E2F               	movwf	(___fldiv@a+2)^0,c
  1856   0012B2  0E40               	movlw	64
  1857   0012B4  6E30               	movwf	(___fldiv@a+3)^0,c
  1858   0012B6  C064  F029         	movff	_EUSART_Baud_Rate_Calculation$3533,___fldiv@b
  1859   0012BA  C065  F02A         	movff	_EUSART_Baud_Rate_Calculation$3533+1,___fldiv@b+1
  1860   0012BE  C066  F02B         	movff	_EUSART_Baud_Rate_Calculation$3533+2,___fldiv@b+2
  1861   0012C2  C067  F02C         	movff	_EUSART_Baud_Rate_Calculation$3533+3,___fldiv@b+3
  1862   0012C6  ECF5  F00E         	call	___fldiv	;wreg free
  1863   0012CA  C029  F042         	movff	?___fldiv,___fladd@b
  1864   0012CE  C02A  F043         	movff	?___fldiv+1,___fladd@b+1
  1865   0012D2  C02B  F044         	movff	?___fldiv+2,___fladd@b+2
  1866   0012D6  C02C  F045         	movff	?___fldiv+3,___fladd@b+3
  1867   0012DA  0E00               	movlw	0
  1868   0012DC  6E46               	movwf	___fladd@a^0,c
  1869   0012DE  0E00               	movlw	0
  1870   0012E0  6E47               	movwf	(___fladd@a+1)^0,c
  1871   0012E2  0E80               	movlw	128
  1872   0012E4  6E48               	movwf	(___fladd@a+2)^0,c
  1873   0012E6  0EBF               	movlw	191
  1874   0012E8  6E49               	movwf	(___fladd@a+3)^0,c
  1875   0012EA  EC80  F00A         	call	___fladd	;wreg free
  1876   0012EE  C042  F060         	movff	?___fladd,EUSART_Baud_Rate_Calculation@baud_rate_temp
  1877   0012F2  C043  F061         	movff	?___fladd+1,EUSART_Baud_Rate_Calculation@baud_rate_temp+1
  1878   0012F6  C044  F062         	movff	?___fladd+2,EUSART_Baud_Rate_Calculation@baud_rate_temp+2
  1879   0012FA  C045  F063         	movff	?___fladd+3,EUSART_Baud_Rate_Calculation@baud_rate_temp+3
  1880                           
  1881                           ;MCAL_Layer/EUSART/hal_eusart.c: 265:                 break;
  1882   0012FE  EF61  F00A         	goto	l4569
  1883   001302                     l462:
  1884                           
  1885                           ;MCAL_Layer/EUSART/hal_eusart.c: 267:                 TXSTAbits.SYNC = 1;
  1886   001302  88AC               	bsf	172,4,c	;volatile
  1887                           
  1888                           ;MCAL_Layer/EUSART/hal_eusart.c: 268:                 BAUDCONbits.BRG16 = 0;
  1889   001304  96B8               	bcf	184,3,c	;volatile
  1890   001306                     
  1891                           ;MCAL_Layer/EUSART/hal_eusart.c: 269:                 baud_rate_temp = ((8000000UL / (fl
      +                          oat)(_eusart_obj->baudrate)) / 4) - 1;
  1892   001306  505C               	movf	EUSART_Baud_Rate_Calculation@_eusart_obj^0,w,c
  1893   001308  6ED9               	movwf	fsr2l,c
  1894   00130A  6ADA               	clrf	fsr2h,c
  1895   00130C  CFDE F05D          	movff	postinc2,??_EUSART_Baud_Rate_Calculation
  1896   001310  CFDD F05E          	movff	postdec2,??_EUSART_Baud_Rate_Calculation+1
  1897   001314  C05D  F002         	movff	??_EUSART_Baud_Rate_Calculation,___xxtofl@val
  1898   001318  C05E  F003         	movff	??_EUSART_Baud_Rate_Calculation+1,___xxtofl@val+1
  1899   00131C  6A04               	clrf	(___xxtofl@val+2)^0,c
  1900   00131E  6A05               	clrf	(___xxtofl@val+3)^0,c
  1901   001320  0E00               	movlw	0
  1902   001322  EC4A  F013         	call	___xxtofl
  1903   001326  C002  F02D         	movff	?___xxtofl,___fldiv@a
  1904   00132A  C003  F02E         	movff	?___xxtofl+1,___fldiv@a+1
  1905   00132E  C004  F02F         	movff	?___xxtofl+2,___fldiv@a+2
  1906   001332  C005  F030         	movff	?___xxtofl+3,___fldiv@a+3
  1907   001336  0E00               	movlw	0
  1908   001338  6E29               	movwf	___fldiv@b^0,c
  1909   00133A  0E24               	movlw	36
  1910   00133C  6E2A               	movwf	(___fldiv@b+1)^0,c
  1911   00133E  0EF4               	movlw	244
  1912   001340  6E2B               	movwf	(___fldiv@b+2)^0,c
  1913   001342  0E4A               	movlw	74
  1914   001344  6E2C               	movwf	(___fldiv@b+3)^0,c
  1915   001346  ECF5  F00E         	call	___fldiv	;wreg free
  1916   00134A  C029  F064         	movff	?___fldiv,_EUSART_Baud_Rate_Calculation$3533
  1917   00134E  C02A  F065         	movff	?___fldiv+1,_EUSART_Baud_Rate_Calculation$3533+1
  1918   001352  C02B  F066         	movff	?___fldiv+2,_EUSART_Baud_Rate_Calculation$3533+2
  1919   001356  C02C  F067         	movff	?___fldiv+3,_EUSART_Baud_Rate_Calculation$3533+3
  1920   00135A                     
  1921                           ;MCAL_Layer/EUSART/hal_eusart.c: 269:                 baud_rate_temp = ((8000000UL / (fl
      +                          oat)(_eusart_obj->baudrate)) / 4) - 1;
  1922   00135A  0E00               	movlw	0
  1923   00135C  6E2D               	movwf	___fldiv@a^0,c
  1924   00135E  0E00               	movlw	0
  1925   001360  6E2E               	movwf	(___fldiv@a+1)^0,c
  1926   001362  0E80               	movlw	128
  1927   001364  6E2F               	movwf	(___fldiv@a+2)^0,c
  1928   001366  0E40               	movlw	64
  1929   001368  6E30               	movwf	(___fldiv@a+3)^0,c
  1930   00136A  C064  F029         	movff	_EUSART_Baud_Rate_Calculation$3533,___fldiv@b
  1931   00136E  C065  F02A         	movff	_EUSART_Baud_Rate_Calculation$3533+1,___fldiv@b+1
  1932   001372  C066  F02B         	movff	_EUSART_Baud_Rate_Calculation$3533+2,___fldiv@b+2
  1933   001376  C067  F02C         	movff	_EUSART_Baud_Rate_Calculation$3533+3,___fldiv@b+3
  1934   00137A  ECF5  F00E         	call	___fldiv	;wreg free
  1935   00137E  C029  F042         	movff	?___fldiv,___fladd@b
  1936   001382  C02A  F043         	movff	?___fldiv+1,___fladd@b+1
  1937   001386  C02B  F044         	movff	?___fldiv+2,___fladd@b+2
  1938   00138A  C02C  F045         	movff	?___fldiv+3,___fladd@b+3
  1939   00138E  0E00               	movlw	0
  1940   001390  6E46               	movwf	___fladd@a^0,c
  1941   001392  0E00               	movlw	0
  1942   001394  6E47               	movwf	(___fladd@a+1)^0,c
  1943   001396  0E80               	movlw	128
  1944   001398  6E48               	movwf	(___fladd@a+2)^0,c
  1945   00139A  0EBF               	movlw	191
  1946   00139C  6E49               	movwf	(___fladd@a+3)^0,c
  1947   00139E  EC80  F00A         	call	___fladd	;wreg free
  1948   0013A2  C042  F060         	movff	?___fladd,EUSART_Baud_Rate_Calculation@baud_rate_temp
  1949   0013A6  C043  F061         	movff	?___fladd+1,EUSART_Baud_Rate_Calculation@baud_rate_temp+1
  1950   0013AA  C044  F062         	movff	?___fladd+2,EUSART_Baud_Rate_Calculation@baud_rate_temp+2
  1951   0013AE  C045  F063         	movff	?___fladd+3,EUSART_Baud_Rate_Calculation@baud_rate_temp+3
  1952                           
  1953                           ;MCAL_Layer/EUSART/hal_eusart.c: 270:                 break;
  1954   0013B2  EF61  F00A         	goto	l4569
  1955   0013B6                     l463:
  1956                           
  1957                           ;MCAL_Layer/EUSART/hal_eusart.c: 272:                 TXSTAbits.SYNC = 1;
  1958   0013B6  88AC               	bsf	172,4,c	;volatile
  1959                           
  1960                           ;MCAL_Layer/EUSART/hal_eusart.c: 273:                 BAUDCONbits.BRG16 = 1;
  1961   0013B8  86B8               	bsf	184,3,c	;volatile
  1962   0013BA                     
  1963                           ;MCAL_Layer/EUSART/hal_eusart.c: 274:                 baud_rate_temp = ((8000000UL / (fl
      +                          oat)(_eusart_obj->baudrate)) / 4) - 1;
  1964   0013BA  505C               	movf	EUSART_Baud_Rate_Calculation@_eusart_obj^0,w,c
  1965   0013BC  6ED9               	movwf	fsr2l,c
  1966   0013BE  6ADA               	clrf	fsr2h,c
  1967   0013C0  CFDE F05D          	movff	postinc2,??_EUSART_Baud_Rate_Calculation
  1968   0013C4  CFDD F05E          	movff	postdec2,??_EUSART_Baud_Rate_Calculation+1
  1969   0013C8  C05D  F002         	movff	??_EUSART_Baud_Rate_Calculation,___xxtofl@val
  1970   0013CC  C05E  F003         	movff	??_EUSART_Baud_Rate_Calculation+1,___xxtofl@val+1
  1971   0013D0  6A04               	clrf	(___xxtofl@val+2)^0,c
  1972   0013D2  6A05               	clrf	(___xxtofl@val+3)^0,c
  1973   0013D4  0E00               	movlw	0
  1974   0013D6  EC4A  F013         	call	___xxtofl
  1975   0013DA  C002  F02D         	movff	?___xxtofl,___fldiv@a
  1976   0013DE  C003  F02E         	movff	?___xxtofl+1,___fldiv@a+1
  1977   0013E2  C004  F02F         	movff	?___xxtofl+2,___fldiv@a+2
  1978   0013E6  C005  F030         	movff	?___xxtofl+3,___fldiv@a+3
  1979   0013EA  0E00               	movlw	0
  1980   0013EC  6E29               	movwf	___fldiv@b^0,c
  1981   0013EE  0E24               	movlw	36
  1982   0013F0  6E2A               	movwf	(___fldiv@b+1)^0,c
  1983   0013F2  0EF4               	movlw	244
  1984   0013F4  6E2B               	movwf	(___fldiv@b+2)^0,c
  1985   0013F6  0E4A               	movlw	74
  1986   0013F8  6E2C               	movwf	(___fldiv@b+3)^0,c
  1987   0013FA  ECF5  F00E         	call	___fldiv	;wreg free
  1988   0013FE  C029  F064         	movff	?___fldiv,_EUSART_Baud_Rate_Calculation$3533
  1989   001402  C02A  F065         	movff	?___fldiv+1,_EUSART_Baud_Rate_Calculation$3533+1
  1990   001406  C02B  F066         	movff	?___fldiv+2,_EUSART_Baud_Rate_Calculation$3533+2
  1991   00140A  C02C  F067         	movff	?___fldiv+3,_EUSART_Baud_Rate_Calculation$3533+3
  1992   00140E                     
  1993                           ;MCAL_Layer/EUSART/hal_eusart.c: 274:                 baud_rate_temp = ((8000000UL / (fl
      +                          oat)(_eusart_obj->baudrate)) / 4) - 1;
  1994   00140E  0E00               	movlw	0
  1995   001410  6E2D               	movwf	___fldiv@a^0,c
  1996   001412  0E00               	movlw	0
  1997   001414  6E2E               	movwf	(___fldiv@a+1)^0,c
  1998   001416  0E80               	movlw	128
  1999   001418  6E2F               	movwf	(___fldiv@a+2)^0,c
  2000   00141A  0E40               	movlw	64
  2001   00141C  6E30               	movwf	(___fldiv@a+3)^0,c
  2002   00141E  C064  F029         	movff	_EUSART_Baud_Rate_Calculation$3533,___fldiv@b
  2003   001422  C065  F02A         	movff	_EUSART_Baud_Rate_Calculation$3533+1,___fldiv@b+1
  2004   001426  C066  F02B         	movff	_EUSART_Baud_Rate_Calculation$3533+2,___fldiv@b+2
  2005   00142A  C067  F02C         	movff	_EUSART_Baud_Rate_Calculation$3533+3,___fldiv@b+3
  2006   00142E  ECF5  F00E         	call	___fldiv	;wreg free
  2007   001432  C029  F042         	movff	?___fldiv,___fladd@b
  2008   001436  C02A  F043         	movff	?___fldiv+1,___fladd@b+1
  2009   00143A  C02B  F044         	movff	?___fldiv+2,___fladd@b+2
  2010   00143E  C02C  F045         	movff	?___fldiv+3,___fladd@b+3
  2011   001442  0E00               	movlw	0
  2012   001444  6E46               	movwf	___fladd@a^0,c
  2013   001446  0E00               	movlw	0
  2014   001448  6E47               	movwf	(___fladd@a+1)^0,c
  2015   00144A  0E80               	movlw	128
  2016   00144C  6E48               	movwf	(___fladd@a+2)^0,c
  2017   00144E  0EBF               	movlw	191
  2018   001450  6E49               	movwf	(___fladd@a+3)^0,c
  2019   001452  EC80  F00A         	call	___fladd	;wreg free
  2020   001456  C042  F060         	movff	?___fladd,EUSART_Baud_Rate_Calculation@baud_rate_temp
  2021   00145A  C043  F061         	movff	?___fladd+1,EUSART_Baud_Rate_Calculation@baud_rate_temp+1
  2022   00145E  C044  F062         	movff	?___fladd+2,EUSART_Baud_Rate_Calculation@baud_rate_temp+2
  2023   001462  C045  F063         	movff	?___fladd+3,EUSART_Baud_Rate_Calculation@baud_rate_temp+3
  2024                           
  2025                           ;MCAL_Layer/EUSART/hal_eusart.c: 275:                 break;
  2026   001466  EF61  F00A         	goto	l4569
  2027   00146A                     l4565:
  2028                           
  2029                           ;MCAL_Layer/EUSART/hal_eusart.c: 278:         }
  2030   00146A  EF61  F00A         	goto	l4569
  2031   00146E                     l4567:
  2032   00146E  505C               	movf	EUSART_Baud_Rate_Calculation@_eusart_obj^0,w,c
  2033   001470  6ED9               	movwf	fsr2l,c
  2034   001472  6ADA               	clrf	fsr2h,c
  2035   001474  0E02               	movlw	2
  2036   001476  26D9               	addwf	fsr2l,f,c
  2037   001478  50DF               	movf	indf2,w,c
  2038   00147A  6E5D               	movwf	??_EUSART_Baud_Rate_Calculation^0,c
  2039   00147C  6A5E               	clrf	(??_EUSART_Baud_Rate_Calculation+1)^0,c
  2040                           
  2041                           ; Switch on 2 bytes has been partitioned into a top level switch of size 1, and 1 sub-sw
      +                          itches
  2042                           ; Switch size 1, requested type "simple"
  2043                           ; Number of cases is 1, Range of values is 0 to 0
  2044                           ; switch strategies available:
  2045                           ; Name         Instructions Cycles
  2046                           ; simple_byte            4     3 (average)
  2047                           ;	Chosen strategy is simple_byte
  2048   00147E  505E               	movf	(??_EUSART_Baud_Rate_Calculation+1)^0,w,c
  2049   001480  0A00               	xorlw	0	; case 0
  2050   001482  B4D8               	btfsc	status,2,c
  2051   001484  EF46  F00A         	goto	l5395
  2052   001488  EF35  F00A         	goto	l4565
  2053   00148C                     l5395:
  2054                           
  2055                           ; Switch size 1, requested type "simple"
  2056                           ; Number of cases is 6, Range of values is 0 to 5
  2057                           ; switch strategies available:
  2058                           ; Name         Instructions Cycles
  2059                           ; simple_byte           19    10 (average)
  2060                           ;	Chosen strategy is simple_byte
  2061   00148C  505D               	movf	??_EUSART_Baud_Rate_Calculation^0,w,c
  2062   00148E  0A00               	xorlw	0	; case 0
  2063   001490  B4D8               	btfsc	status,2,c
  2064   001492  EF15  F008         	goto	l457
  2065   001496  0A01               	xorlw	1	; case 1
  2066   001498  B4D8               	btfsc	status,2,c
  2067   00149A  EF70  F008         	goto	l459
  2068   00149E  0A03               	xorlw	3	; case 2
  2069   0014A0  B4D8               	btfsc	status,2,c
  2070   0014A2  EFCB  F008         	goto	l460
  2071   0014A6  0A01               	xorlw	1	; case 3
  2072   0014A8  B4D8               	btfsc	status,2,c
  2073   0014AA  EF26  F009         	goto	l461
  2074   0014AE  0A07               	xorlw	7	; case 4
  2075   0014B0  B4D8               	btfsc	status,2,c
  2076   0014B2  EF81  F009         	goto	l462
  2077   0014B6  0A01               	xorlw	1	; case 5
  2078   0014B8  B4D8               	btfsc	status,2,c
  2079   0014BA  EFDB  F009         	goto	l463
  2080   0014BE  EF35  F00A         	goto	l4565
  2081   0014C2                     l4569:
  2082                           
  2083                           ;MCAL_Layer/EUSART/hal_eusart.c: 279:         SPBRG = (uint8)((uint32)baud_rate_temp);
  2084   0014C2  C060  F052         	movff	EUSART_Baud_Rate_Calculation@baud_rate_temp,___fltol@f1
  2085   0014C6  C061  F053         	movff	EUSART_Baud_Rate_Calculation@baud_rate_temp+1,___fltol@f1+1
  2086   0014CA  C062  F054         	movff	EUSART_Baud_Rate_Calculation@baud_rate_temp+2,___fltol@f1+2
  2087   0014CE  C063  F055         	movff	EUSART_Baud_Rate_Calculation@baud_rate_temp+3,___fltol@f1+3
  2088   0014D2  EC59  F016         	call	___fltol	;wreg free
  2089   0014D6  5052               	movf	?___fltol^0,w,c
  2090   0014D8  6EAF               	movwf	175,c	;volatile
  2091                           
  2092                           ;MCAL_Layer/EUSART/hal_eusart.c: 280:         SPBRGH = (uint8)(((uint32)baud_rate_temp) 
      +                          >> 8);
  2093   0014DA  C060  F052         	movff	EUSART_Baud_Rate_Calculation@baud_rate_temp,___fltol@f1
  2094   0014DE  C061  F053         	movff	EUSART_Baud_Rate_Calculation@baud_rate_temp+1,___fltol@f1+1
  2095   0014E2  C062  F054         	movff	EUSART_Baud_Rate_Calculation@baud_rate_temp+2,___fltol@f1+2
  2096   0014E6  C063  F055         	movff	EUSART_Baud_Rate_Calculation@baud_rate_temp+3,___fltol@f1+3
  2097   0014EA  EC59  F016         	call	___fltol	;wreg free
  2098   0014EE  C053  F052         	movff	?___fltol+1,?___fltol
  2099   0014F2  6A53               	clrf	(?___fltol+1)^0,c
  2100   0014F4  5052               	movf	?___fltol^0,w,c
  2101   0014F6  6EB0               	movwf	176,c	;volatile
  2102   0014F8                     
  2103                           ;MCAL_Layer/EUSART/hal_eusart.c: 281:         retVal = (Std_ReturnType)0x01;
  2104   0014F8  0E01               	movlw	1
  2105   0014FA  6E5F               	movwf	EUSART_Baud_Rate_Calculation@retVal^0,c
  2106   0014FC                     l4573:
  2107                           
  2108                           ;MCAL_Layer/EUSART/hal_eusart.c: 283:     return retVal;
  2109   0014FC  505F               	movf	EUSART_Baud_Rate_Calculation@retVal^0,w,c
  2110   0014FE  0012               	return		;funcret
  2111   001500                     __end_of_EUSART_Baud_Rate_Calculation:
  2112                           	callstack 0
  2113                           
  2114 ;; *************** function _EUSART_ASYNC_TX_Init *****************
  2115 ;; Defined at:
  2116 ;;		line 288 in file "MCAL_Layer/EUSART/hal_eusart.c"
  2117 ;; Parameters:    Size  Location     Type
  2118 ;;  _eusart_obj     1    1[COMRAM] PTR const struct .
  2119 ;;		 -> eusart_1(16), 
  2120 ;; Auto vars:     Size  Location     Type
  2121 ;;  retVal          1    2[COMRAM] unsigned char 
  2122 ;; Return value:  Size  Location     Type
  2123 ;;                  1    wreg      unsigned char 
  2124 ;; Registers used:
  2125 ;;		wreg, fsr2l, fsr2h, status,2, status,0
  2126 ;; Tracked objects:
  2127 ;;		On entry : 0/0
  2128 ;;		On exit  : 0/0
  2129 ;;		Unchanged: 0/0
  2130 ;; Data sizes:     COMRAM   BANK0   BANK1   BANK2   BANK3   BANK4   BANK5   BANK6   BANK7   BANK8   BANK9  BANK10  BANK1
      +1  BANK12  BANK13  BANK14  BANK15
  2131 ;;      Params:         1       0       0       0       0       0       0       0       0       0       0       0       
      +0       0       0       0       0
  2132 ;;      Locals:         1       0       0       0       0       0       0       0       0       0       0       0       
      +0       0       0       0       0
  2133 ;;      Temps:          0       0       0       0       0       0       0       0       0       0       0       0       
      +0       0       0       0       0
  2134 ;;      Totals:         2       0       0       0       0       0       0       0       0       0       0       0       
      +0       0       0       0       0
  2135 ;;Total ram usage:        2 bytes
  2136 ;; Hardware stack levels used: 1
  2137 ;; Hardware stack levels required when called: 2
  2138 ;; This function calls:
  2139 ;;		Nothing
  2140 ;; This function is called by:
  2141 ;;		_EUSART_ASYNC_Init
  2142 ;; This function uses a non-reentrant model
  2143 ;;
  2144                           
  2145                           	psect	text9
  2146   002F7C                     __ptext9:
  2147                           	callstack 0
  2148   002F7C                     _EUSART_ASYNC_TX_Init:
  2149                           	callstack 25
  2150   002F7C                     
  2151                           ;MCAL_Layer/EUSART/hal_eusart.c: 290:     if(((void*)0) == _eusart_obj){
  2152   002F7C  5002               	movf	EUSART_ASYNC_TX_Init@_eusart_obj^0,w,c
  2153   002F7E  A4D8               	btfss	status,2,c
  2154   002F80  EFC4  F017         	goto	u4291
  2155   002F84  EFC6  F017         	goto	u4290
  2156   002F88                     u4291:
  2157   002F88  EFCA  F017         	goto	l4585
  2158   002F8C                     u4290:
  2159   002F8C                     
  2160                           ;MCAL_Layer/EUSART/hal_eusart.c: 291:         retVal = (Std_ReturnType)0x00;
  2161   002F8C  0E00               	movlw	0
  2162   002F8E  6E03               	movwf	EUSART_ASYNC_TX_Init@retVal^0,c
  2163                           
  2164                           ;MCAL_Layer/EUSART/hal_eusart.c: 292:     }
  2165   002F90  EF1D  F018         	goto	l469
  2166   002F94                     l4585:
  2167                           
  2168                           ;MCAL_Layer/EUSART/hal_eusart.c: 294:         if(1 == _eusart_obj->eusart_tx_cfg.eusart_
      +                          tx_enable){
  2169   002F94  5002               	movf	EUSART_ASYNC_TX_Init@_eusart_obj^0,w,c
  2170   002F96  6ED9               	movwf	fsr2l,c
  2171   002F98  6ADA               	clrf	fsr2h,c
  2172   002F9A  0E04               	movlw	4
  2173   002F9C  26D9               	addwf	fsr2l,f,c
  2174   002F9E  A0DF               	btfss	indf2,0,c
  2175   002FA0  EFD4  F017         	goto	u4301
  2176   002FA4  EFD6  F017         	goto	u4300
  2177   002FA8                     u4301:
  2178   002FA8  EF1B  F018         	goto	l4611
  2179   002FAC                     u4300:
  2180   002FAC                     
  2181                           ;MCAL_Layer/EUSART/hal_eusart.c: 296:             TXSTAbits.TXEN = 1;
  2182   002FAC  8AAC               	bsf	172,5,c	;volatile
  2183   002FAE                     
  2184                           ;MCAL_Layer/EUSART/hal_eusart.c: 299:             if(1 == _eusart_obj->eusart_tx_cfg.eus
      +                          art_tx_interrupt_enable){
  2185   002FAE  5002               	movf	EUSART_ASYNC_TX_Init@_eusart_obj^0,w,c
  2186   002FB0  6ED9               	movwf	fsr2l,c
  2187   002FB2  6ADA               	clrf	fsr2h,c
  2188   002FB4  0E04               	movlw	4
  2189   002FB6  26D9               	addwf	fsr2l,f,c
  2190   002FB8  A2DF               	btfss	indf2,1,c
  2191   002FBA  EFE1  F017         	goto	u4311
  2192   002FBE  EFE3  F017         	goto	u4310
  2193   002FC2                     u4311:
  2194   002FC2  EFF2  F017         	goto	l4599
  2195   002FC6                     u4310:
  2196   002FC6                     
  2197                           ;MCAL_Layer/EUSART/hal_eusart.c: 300:                 PIE1bits.TX1IE = 1;
  2198   002FC6  889D               	bsf	157,4,c	;volatile
  2199                           
  2200                           ;MCAL_Layer/EUSART/hal_eusart.c: 303:         (PIE1bits.TXIE = 1);
  2201   002FC8  889D               	bsf	157,4,c	;volatile
  2202   002FCA                     
  2203                           ;MCAL_Layer/EUSART/hal_eusart.c: 304:         EUSART_TxInterruptHandler = _eusart_obj->E
      +                          USART_TxInterruptHandler;
  2204   002FCA  5002               	movf	EUSART_ASYNC_TX_Init@_eusart_obj^0,w,c
  2205   002FCC  6ED9               	movwf	fsr2l,c
  2206   002FCE  6ADA               	clrf	fsr2h,c
  2207   002FD0  0E08               	movlw	8
  2208   002FD2  26D9               	addwf	fsr2l,f,c
  2209   002FD4  CFDE F0DA          	movff	postinc2,_EUSART_TxInterruptHandler
  2210   002FD8  CFDD F0DB          	movff	postdec2,_EUSART_TxInterruptHandler+1
  2211   002FDC                     
  2212                           ;MCAL_Layer/EUSART/hal_eusart.c: 317:         (INTCONbits.GIE = 1);
  2213   002FDC  8EF2               	bsf	242,7,c	;volatile
  2214   002FDE                     
  2215                           ;MCAL_Layer/EUSART/hal_eusart.c: 318:         (INTCONbits.PEIE = 1);
  2216   002FDE  8CF2               	bsf	242,6,c	;volatile
  2217                           
  2218                           ;MCAL_Layer/EUSART/hal_eusart.c: 321:             }
  2219   002FE0  EFFF  F017         	goto	l4603
  2220   002FE4                     l4599:
  2221   002FE4  5002               	movf	EUSART_ASYNC_TX_Init@_eusart_obj^0,w,c
  2222   002FE6  6ED9               	movwf	fsr2l,c
  2223   002FE8  6ADA               	clrf	fsr2h,c
  2224   002FEA  0E04               	movlw	4
  2225   002FEC  26D9               	addwf	fsr2l,f,c
  2226   002FEE  B2DF               	btfsc	indf2,1,c
  2227   002FF0  EFFC  F017         	goto	u4321
  2228   002FF4  EFFE  F017         	goto	u4320
  2229   002FF8                     u4321:
  2230   002FF8  EFFF  F017         	goto	l4603
  2231   002FFC                     u4320:
  2232   002FFC                     
  2233                           ;MCAL_Layer/EUSART/hal_eusart.c: 323:                 PIE1bits.TX1IE = 0;
  2234   002FFC  989D               	bcf	157,4,c	;volatile
  2235   002FFE                     l4603:
  2236                           
  2237                           ;MCAL_Layer/EUSART/hal_eusart.c: 327:             if(1 == _eusart_obj->eusart_tx_cfg.eus
      +                          art_tx_9bit_enable){
  2238   002FFE  5002               	movf	EUSART_ASYNC_TX_Init@_eusart_obj^0,w,c
  2239   003000  6ED9               	movwf	fsr2l,c
  2240   003002  6ADA               	clrf	fsr2h,c
  2241   003004  0E04               	movlw	4
  2242   003006  26D9               	addwf	fsr2l,f,c
  2243   003008  A4DF               	btfss	indf2,2,c
  2244   00300A  EF09  F018         	goto	u4331
  2245   00300E  EF0B  F018         	goto	u4330
  2246   003012                     u4331:
  2247   003012  EF0E  F018         	goto	l4607
  2248   003016                     u4330:
  2249   003016                     
  2250                           ;MCAL_Layer/EUSART/hal_eusart.c: 328:                 TXSTAbits.TX9 = 1;
  2251   003016  8CAC               	bsf	172,6,c	;volatile
  2252                           
  2253                           ;MCAL_Layer/EUSART/hal_eusart.c: 329:             }
  2254   003018  EF1B  F018         	goto	l4611
  2255   00301C                     l4607:
  2256   00301C  5002               	movf	EUSART_ASYNC_TX_Init@_eusart_obj^0,w,c
  2257   00301E  6ED9               	movwf	fsr2l,c
  2258   003020  6ADA               	clrf	fsr2h,c
  2259   003022  0E04               	movlw	4
  2260   003024  26D9               	addwf	fsr2l,f,c
  2261   003026  B4DF               	btfsc	indf2,2,c
  2262   003028  EF18  F018         	goto	u4341
  2263   00302C  EF1A  F018         	goto	u4340
  2264   003030                     u4341:
  2265   003030  EF1B  F018         	goto	l4611
  2266   003034                     u4340:
  2267   003034                     
  2268                           ;MCAL_Layer/EUSART/hal_eusart.c: 331:                 TXSTAbits.TX9 = 0;
  2269   003034  9CAC               	bcf	172,6,c	;volatile
  2270   003036                     l4611:
  2271                           
  2272                           ;MCAL_Layer/EUSART/hal_eusart.c: 336:         retVal = (Std_ReturnType)0x01;
  2273   003036  0E01               	movlw	1
  2274   003038  6E03               	movwf	EUSART_ASYNC_TX_Init@retVal^0,c
  2275   00303A                     l469:
  2276                           
  2277                           ;MCAL_Layer/EUSART/hal_eusart.c: 338:     return retVal;
  2278   00303A  5003               	movf	EUSART_ASYNC_TX_Init@retVal^0,w,c
  2279   00303C  0012               	return		;funcret
  2280   00303E                     __end_of_EUSART_ASYNC_TX_Init:
  2281                           	callstack 0
  2282                           
  2283 ;; *************** function _EUSART_ASYNC_RX_Init *****************
  2284 ;; Defined at:
  2285 ;;		line 342 in file "MCAL_Layer/EUSART/hal_eusart.c"
  2286 ;; Parameters:    Size  Location     Type
  2287 ;;  _eusart_obj     1    1[COMRAM] PTR const struct .
  2288 ;;		 -> eusart_1(16), 
  2289 ;; Auto vars:     Size  Location     Type
  2290 ;;  retVal          1    2[COMRAM] unsigned char 
  2291 ;; Return value:  Size  Location     Type
  2292 ;;                  1    wreg      unsigned char 
  2293 ;; Registers used:
  2294 ;;		wreg, fsr2l, fsr2h, status,2, status,0
  2295 ;; Tracked objects:
  2296 ;;		On entry : 0/0
  2297 ;;		On exit  : 0/0
  2298 ;;		Unchanged: 0/0
  2299 ;; Data sizes:     COMRAM   BANK0   BANK1   BANK2   BANK3   BANK4   BANK5   BANK6   BANK7   BANK8   BANK9  BANK10  BANK1
      +1  BANK12  BANK13  BANK14  BANK15
  2300 ;;      Params:         1       0       0       0       0       0       0       0       0       0       0       0       
      +0       0       0       0       0
  2301 ;;      Locals:         1       0       0       0       0       0       0       0       0       0       0       0       
      +0       0       0       0       0
  2302 ;;      Temps:          0       0       0       0       0       0       0       0       0       0       0       0       
      +0       0       0       0       0
  2303 ;;      Totals:         2       0       0       0       0       0       0       0       0       0       0       0       
      +0       0       0       0       0
  2304 ;;Total ram usage:        2 bytes
  2305 ;; Hardware stack levels used: 1
  2306 ;; Hardware stack levels required when called: 2
  2307 ;; This function calls:
  2308 ;;		Nothing
  2309 ;; This function is called by:
  2310 ;;		_EUSART_ASYNC_Init
  2311 ;; This function uses a non-reentrant model
  2312 ;;
  2313                           
  2314                           	psect	text10
  2315   002DB8                     __ptext10:
  2316                           	callstack 0
  2317   002DB8                     _EUSART_ASYNC_RX_Init:
  2318                           	callstack 25
  2319   002DB8                     
  2320                           ;MCAL_Layer/EUSART/hal_eusart.c: 344:     if(((void*)0) == _eusart_obj){
  2321   002DB8  5002               	movf	EUSART_ASYNC_RX_Init@_eusart_obj^0,w,c
  2322   002DBA  A4D8               	btfss	status,2,c
  2323   002DBC  EFE2  F016         	goto	u4351
  2324   002DC0  EFE4  F016         	goto	u4350
  2325   002DC4                     u4351:
  2326   002DC4  EFE8  F016         	goto	l4619
  2327   002DC8                     u4350:
  2328   002DC8                     
  2329                           ;MCAL_Layer/EUSART/hal_eusart.c: 345:         retVal = (Std_ReturnType)0x00;
  2330   002DC8  0E00               	movlw	0
  2331   002DCA  6E03               	movwf	EUSART_ASYNC_RX_Init@retVal^0,c
  2332                           
  2333                           ;MCAL_Layer/EUSART/hal_eusart.c: 346:     }
  2334   002DCC  EF4D  F017         	goto	l482
  2335   002DD0                     l4619:
  2336                           
  2337                           ;MCAL_Layer/EUSART/hal_eusart.c: 348:         if(1 == _eusart_obj->eusart_rx_cfg.eusart_
      +                          rx_enable){
  2338   002DD0  5002               	movf	EUSART_ASYNC_RX_Init@_eusart_obj^0,w,c
  2339   002DD2  6ED9               	movwf	fsr2l,c
  2340   002DD4  6ADA               	clrf	fsr2h,c
  2341   002DD6  0E06               	movlw	6
  2342   002DD8  26D9               	addwf	fsr2l,f,c
  2343   002DDA  A0DF               	btfss	indf2,0,c
  2344   002DDC  EFF2  F016         	goto	u4361
  2345   002DE0  EFF4  F016         	goto	u4360
  2346   002DE4                     u4361:
  2347   002DE4  EF4B  F017         	goto	l4645
  2348   002DE8                     u4360:
  2349   002DE8                     
  2350                           ;MCAL_Layer/EUSART/hal_eusart.c: 350:             RCSTAbits.CREN = 1;
  2351   002DE8  88AB               	bsf	171,4,c	;volatile
  2352   002DEA                     
  2353                           ;MCAL_Layer/EUSART/hal_eusart.c: 353:             if(1 == _eusart_obj->eusart_rx_cfg.eus
      +                          art_rx_interrupt_enable){
  2354   002DEA  5002               	movf	EUSART_ASYNC_RX_Init@_eusart_obj^0,w,c
  2355   002DEC  6ED9               	movwf	fsr2l,c
  2356   002DEE  6ADA               	clrf	fsr2h,c
  2357   002DF0  0E06               	movlw	6
  2358   002DF2  26D9               	addwf	fsr2l,f,c
  2359   002DF4  A2DF               	btfss	indf2,1,c
  2360   002DF6  EFFF  F016         	goto	u4371
  2361   002DFA  EF01  F017         	goto	u4370
  2362   002DFE                     u4371:
  2363   002DFE  EF22  F017         	goto	l4633
  2364   002E02                     u4370:
  2365   002E02                     
  2366                           ;MCAL_Layer/EUSART/hal_eusart.c: 354:                 PIE1bits.RCIE = 1;
  2367   002E02  8A9D               	bsf	157,5,c	;volatile
  2368                           
  2369                           ;MCAL_Layer/EUSART/hal_eusart.c: 357:         (PIE1bits.RCIE = 1);
  2370   002E04  8A9D               	bsf	157,5,c	;volatile
  2371   002E06                     
  2372                           ;MCAL_Layer/EUSART/hal_eusart.c: 358:         EUSART_RxInterruptHandler = _eusart_obj->E
      +                          USART_RxInterruptHandler;
  2373   002E06  5002               	movf	EUSART_ASYNC_RX_Init@_eusart_obj^0,w,c
  2374   002E08  6ED9               	movwf	fsr2l,c
  2375   002E0A  6ADA               	clrf	fsr2h,c
  2376   002E0C  0E0A               	movlw	10
  2377   002E0E  26D9               	addwf	fsr2l,f,c
  2378   002E10  CFDE F0D8          	movff	postinc2,_EUSART_RxInterruptHandler
  2379   002E14  CFDD F0D9          	movff	postdec2,_EUSART_RxInterruptHandler+1
  2380                           
  2381                           ;MCAL_Layer/EUSART/hal_eusart.c: 359:         EUSART_FramingErrorHandler = _eusart_obj->
      +                          EUSART_FramingErrorHandler;
  2382   002E18  5002               	movf	EUSART_ASYNC_RX_Init@_eusart_obj^0,w,c
  2383   002E1A  6ED9               	movwf	fsr2l,c
  2384   002E1C  6ADA               	clrf	fsr2h,c
  2385   002E1E  0E0C               	movlw	12
  2386   002E20  26D9               	addwf	fsr2l,f,c
  2387   002E22  CFDE F0D6          	movff	postinc2,_EUSART_FramingErrorHandler
  2388   002E26  CFDD F0D7          	movff	postdec2,_EUSART_FramingErrorHandler+1
  2389                           
  2390                           ;MCAL_Layer/EUSART/hal_eusart.c: 360:         EUSART_OverrunErrorHandler = _eusart_obj->
      +                          EUSART_OverrunErrorHandler;
  2391   002E2A  5002               	movf	EUSART_ASYNC_RX_Init@_eusart_obj^0,w,c
  2392   002E2C  6ED9               	movwf	fsr2l,c
  2393   002E2E  6ADA               	clrf	fsr2h,c
  2394   002E30  0E0E               	movlw	14
  2395   002E32  26D9               	addwf	fsr2l,f,c
  2396   002E34  CFDE F0D4          	movff	postinc2,_EUSART_OverrunErrorHandler
  2397   002E38  CFDD F0D5          	movff	postdec2,_EUSART_OverrunErrorHandler+1
  2398   002E3C                     
  2399                           ;MCAL_Layer/EUSART/hal_eusart.c: 373:         (INTCONbits.GIE = 1);
  2400   002E3C  8EF2               	bsf	242,7,c	;volatile
  2401   002E3E                     
  2402                           ;MCAL_Layer/EUSART/hal_eusart.c: 374:         (INTCONbits.PEIE = 1);
  2403   002E3E  8CF2               	bsf	242,6,c	;volatile
  2404                           
  2405                           ;MCAL_Layer/EUSART/hal_eusart.c: 377:             }
  2406   002E40  EF2F  F017         	goto	l4637
  2407   002E44                     l4633:
  2408   002E44  5002               	movf	EUSART_ASYNC_RX_Init@_eusart_obj^0,w,c
  2409   002E46  6ED9               	movwf	fsr2l,c
  2410   002E48  6ADA               	clrf	fsr2h,c
  2411   002E4A  0E06               	movlw	6
  2412   002E4C  26D9               	addwf	fsr2l,f,c
  2413   002E4E  B2DF               	btfsc	indf2,1,c
  2414   002E50  EF2C  F017         	goto	u4381
  2415   002E54  EF2E  F017         	goto	u4380
  2416   002E58                     u4381:
  2417   002E58  EF2F  F017         	goto	l4637
  2418   002E5C                     u4380:
  2419   002E5C                     
  2420                           ;MCAL_Layer/EUSART/hal_eusart.c: 379:                 PIE1bits.RCIE = 0;
  2421   002E5C  9A9D               	bcf	157,5,c	;volatile
  2422   002E5E                     l4637:
  2423                           
  2424                           ;MCAL_Layer/EUSART/hal_eusart.c: 382:             if(1 == _eusart_obj->eusart_rx_cfg.eus
      +                          art_rx_9bit_enable){
  2425   002E5E  5002               	movf	EUSART_ASYNC_RX_Init@_eusart_obj^0,w,c
  2426   002E60  6ED9               	movwf	fsr2l,c
  2427   002E62  6ADA               	clrf	fsr2h,c
  2428   002E64  0E06               	movlw	6
  2429   002E66  26D9               	addwf	fsr2l,f,c
  2430   002E68  A4DF               	btfss	indf2,2,c
  2431   002E6A  EF39  F017         	goto	u4391
  2432   002E6E  EF3B  F017         	goto	u4390
  2433   002E72                     u4391:
  2434   002E72  EF3E  F017         	goto	l4641
  2435   002E76                     u4390:
  2436   002E76                     
  2437                           ;MCAL_Layer/EUSART/hal_eusart.c: 383:                 RCSTAbits.RX9 = 1;
  2438   002E76  8CAB               	bsf	171,6,c	;volatile
  2439                           
  2440                           ;MCAL_Layer/EUSART/hal_eusart.c: 384:             }
  2441   002E78  EF4B  F017         	goto	l4645
  2442   002E7C                     l4641:
  2443   002E7C  5002               	movf	EUSART_ASYNC_RX_Init@_eusart_obj^0,w,c
  2444   002E7E  6ED9               	movwf	fsr2l,c
  2445   002E80  6ADA               	clrf	fsr2h,c
  2446   002E82  0E06               	movlw	6
  2447   002E84  26D9               	addwf	fsr2l,f,c
  2448   002E86  B4DF               	btfsc	indf2,2,c
  2449   002E88  EF48  F017         	goto	u4401
  2450   002E8C  EF4A  F017         	goto	u4400
  2451   002E90                     u4401:
  2452   002E90  EF4B  F017         	goto	l4645
  2453   002E94                     u4400:
  2454   002E94                     
  2455                           ;MCAL_Layer/EUSART/hal_eusart.c: 386:                 RCSTAbits.RX9 = 0;
  2456   002E94  9CAB               	bcf	171,6,c	;volatile
  2457   002E96                     l4645:
  2458                           
  2459                           ;MCAL_Layer/EUSART/hal_eusart.c: 391:         retVal = (Std_ReturnType)0x01;
  2460   002E96  0E01               	movlw	1
  2461   002E98  6E03               	movwf	EUSART_ASYNC_RX_Init@retVal^0,c
  2462   002E9A                     l482:
  2463                           
  2464                           ;MCAL_Layer/EUSART/hal_eusart.c: 393:     return retVal;
  2465   002E9A  5003               	movf	EUSART_ASYNC_RX_Init@retVal^0,w,c
  2466   002E9C  0012               	return		;funcret
  2467   002E9E                     __end_of_EUSART_ASYNC_RX_Init:
  2468                           	callstack 0
  2469                           
  2470 ;; *************** function _CCP_Init *****************
  2471 ;; Defined at:
  2472 ;;		line 31 in file "MCAL_Layer/CCP/hal_ccp.c"
  2473 ;; Parameters:    Size  Location     Type
  2474 ;;  _ccp_obj        1  102[COMRAM] PTR const struct .
  2475 ;;		 -> ccp1_pwm(14), 
  2476 ;; Auto vars:     Size  Location     Type
  2477 ;;  retVal          1  104[COMRAM] unsigned char 
  2478 ;; Return value:  Size  Location     Type
  2479 ;;                  1    wreg      unsigned char 
  2480 ;; Registers used:
  2481 ;;		wreg, fsr2l, fsr2h, status,2, status,0, prodl, prodh, cstack
  2482 ;; Tracked objects:
  2483 ;;		On entry : 0/0
  2484 ;;		On exit  : 0/0
  2485 ;;		Unchanged: 0/0
  2486 ;; Data sizes:     COMRAM   BANK0   BANK1   BANK2   BANK3   BANK4   BANK5   BANK6   BANK7   BANK8   BANK9  BANK10  BANK1
      +1  BANK12  BANK13  BANK14  BANK15
  2487 ;;      Params:         1       0       0       0       0       0       0       0       0       0       0       0       
      +0       0       0       0       0
  2488 ;;      Locals:         1       0       0       0       0       0       0       0       0       0       0       0       
      +0       0       0       0       0
  2489 ;;      Temps:          1       0       0       0       0       0       0       0       0       0       0       0       
      +0       0       0       0       0
  2490 ;;      Totals:         3       0       0       0       0       0       0       0       0       0       0       0       
      +0       0       0       0       0
  2491 ;;Total ram usage:        3 bytes
  2492 ;; Hardware stack levels used: 1
  2493 ;; Hardware stack levels required when called: 4
  2494 ;; This function calls:
  2495 ;;		_CCP_Capture_Mode_Config
  2496 ;;		_CCP_Compare_Mode_Config
  2497 ;;		_CCP_Interrupt_Config
  2498 ;;		_CCP_PWM_Mode_Config
  2499 ;;		_gpio_pin_initialize
  2500 ;; This function is called by:
  2501 ;;		_mcal_layer_initialize
  2502 ;; This function uses a non-reentrant model
  2503 ;;
  2504                           
  2505                           	psect	text11
  2506   002E9E                     __ptext11:
  2507                           	callstack 0
  2508   002E9E                     _CCP_Init:
  2509                           	callstack 24
  2510   002E9E                     
  2511                           ;MCAL_Layer/CCP/hal_ccp.c: 33:     if(((void*)0) == _ccp_obj){
  2512   002E9E  5067               	movf	CCP_Init@_ccp_obj^0,w,c
  2513   002EA0  A4D8               	btfss	status,2,c
  2514   002EA2  EF55  F017         	goto	u4431
  2515   002EA6  EF57  F017         	goto	u4430
  2516   002EAA                     u4431:
  2517   002EAA  EF5B  F017         	goto	l4671
  2518   002EAE                     u4430:
  2519   002EAE                     
  2520                           ;MCAL_Layer/CCP/hal_ccp.c: 34:         retVal = (Std_ReturnType)0x00;
  2521   002EAE  0E00               	movlw	0
  2522   002EB0  6E69               	movwf	CCP_Init@retVal^0,c
  2523                           
  2524                           ;MCAL_Layer/CCP/hal_ccp.c: 35:     }
  2525   002EB2  EFBC  F017         	goto	l4697
  2526   002EB6                     l4671:
  2527                           
  2528                           ;MCAL_Layer/CCP/hal_ccp.c: 38:         if(CCP1_INST == _ccp_obj->ccp_inst){
  2529   002EB6  5067               	movf	CCP_Init@_ccp_obj^0,w,c
  2530   002EB8  6ED9               	movwf	fsr2l,c
  2531   002EBA  6ADA               	clrf	fsr2h,c
  2532   002EBC  50DF               	movf	indf2,w,c
  2533   002EBE  A4D8               	btfss	status,2,c
  2534   002EC0  EF64  F017         	goto	u4441
  2535   002EC4  EF66  F017         	goto	u4440
  2536   002EC8                     u4441:
  2537   002EC8  EF6A  F017         	goto	l4675
  2538   002ECC                     u4440:
  2539   002ECC                     
  2540                           ;MCAL_Layer/CCP/hal_ccp.c: 39:             (CCP1CONbits.CCP1M = ((uint8)0x00));
  2541   002ECC  0EF0               	movlw	-16
  2542   002ECE  16BD               	andwf	189,f,c	;volatile
  2543                           
  2544                           ;MCAL_Layer/CCP/hal_ccp.c: 40:         }
  2545   002ED0  EF77  F017         	goto	l4679
  2546   002ED4                     l4675:
  2547   002ED4  5067               	movf	CCP_Init@_ccp_obj^0,w,c
  2548   002ED6  6ED9               	movwf	fsr2l,c
  2549   002ED8  6ADA               	clrf	fsr2h,c
  2550   002EDA  04DE               	decf	postinc2,w,c
  2551   002EDC  A4D8               	btfss	status,2,c
  2552   002EDE  EF73  F017         	goto	u4451
  2553   002EE2  EF75  F017         	goto	u4450
  2554   002EE6                     u4451:
  2555   002EE6  EF77  F017         	goto	l4679
  2556   002EEA                     u4450:
  2557   002EEA                     
  2558                           ;MCAL_Layer/CCP/hal_ccp.c: 42:             (CCP2CONbits.CCP2M = ((uint8)0x00));
  2559   002EEA  0EF0               	movlw	-16
  2560   002EEC  16BA               	andwf	186,f,c	;volatile
  2561   002EEE                     l4679:
  2562                           
  2563                           ;MCAL_Layer/CCP/hal_ccp.c: 47:         if(CCP_CAPTURE_MODE_SELECTED == _ccp_obj->ccp_mod
      +                          e){
  2564   002EEE  5067               	movf	CCP_Init@_ccp_obj^0,w,c
  2565   002EF0  6ED9               	movwf	fsr2l,c
  2566   002EF2  6ADA               	clrf	fsr2h,c
  2567   002EF4  0E01               	movlw	1
  2568   002EF6  26D9               	addwf	fsr2l,f,c
  2569   002EF8  50DF               	movf	indf2,w,c
  2570   002EFA  A4D8               	btfss	status,2,c
  2571   002EFC  EF82  F017         	goto	u4461
  2572   002F00  EF84  F017         	goto	u4460
  2573   002F04                     u4461:
  2574   002F04  EF8A  F017         	goto	l4683
  2575   002F08                     u4460:
  2576   002F08  C067  F004         	movff	CCP_Init@_ccp_obj,CCP_Capture_Mode_Config@_ccp_obj
  2577   002F0C  ECD3  F015         	call	_CCP_Capture_Mode_Config	;wreg free
  2578                           
  2579                           ;MCAL_Layer/CCP/hal_ccp.c: 49:         }
  2580   002F10  EFB1  F017         	goto	l4691
  2581   002F14                     l4683:
  2582   002F14  5067               	movf	CCP_Init@_ccp_obj^0,w,c
  2583   002F16  6ED9               	movwf	fsr2l,c
  2584   002F18  6ADA               	clrf	fsr2h,c
  2585   002F1A  0E01               	movlw	1
  2586   002F1C  26D9               	addwf	fsr2l,f,c
  2587   002F1E  04DE               	decf	postinc2,w,c
  2588   002F20  A4D8               	btfss	status,2,c
  2589   002F22  EF95  F017         	goto	u4471
  2590   002F26  EF97  F017         	goto	u4470
  2591   002F2A                     u4471:
  2592   002F2A  EF9D  F017         	goto	l4687
  2593   002F2E                     u4470:
  2594   002F2E  C067  F004         	movff	CCP_Init@_ccp_obj,CCP_Compare_Mode_Config@_ccp_obj
  2595   002F32  EC24  F014         	call	_CCP_Compare_Mode_Config	;wreg free
  2596                           
  2597                           ;MCAL_Layer/CCP/hal_ccp.c: 53:         }
  2598   002F36  EFB1  F017         	goto	l4691
  2599   002F3A                     l4687:
  2600   002F3A  5067               	movf	CCP_Init@_ccp_obj^0,w,c
  2601   002F3C  6ED9               	movwf	fsr2l,c
  2602   002F3E  6ADA               	clrf	fsr2h,c
  2603   002F40  0E01               	movlw	1
  2604   002F42  26D9               	addwf	fsr2l,f,c
  2605   002F44  0E02               	movlw	2
  2606   002F46  18DE               	xorwf	postinc2,w,c
  2607   002F48  A4D8               	btfss	status,2,c
  2608   002F4A  EFA9  F017         	goto	u4481
  2609   002F4E  EFAB  F017         	goto	u4480
  2610   002F52                     u4481:
  2611   002F52  EFB1  F017         	goto	l210
  2612   002F56                     u4480:
  2613   002F56                     
  2614                           ;MCAL_Layer/CCP/hal_ccp.c: 57:             CCP_PWM_Mode_Config(_ccp_obj);
  2615   002F56  C067  F05C         	movff	CCP_Init@_ccp_obj,CCP_PWM_Mode_Config@_ccp_obj
  2616   002F5A  EC65  F012         	call	_CCP_PWM_Mode_Config	;wreg free
  2617                           
  2618                           ;MCAL_Layer/CCP/hal_ccp.c: 58:         }
  2619   002F5E  EFB1  F017         	goto	l4691
  2620   002F62                     l210:
  2621   002F62                     l4691:
  2622   002F62  5067               	movf	CCP_Init@_ccp_obj^0,w,c
  2623   002F64  0F03               	addlw	3
  2624   002F66  6E0A               	movwf	gpio_pin_initialize@config^0,c
  2625   002F68  ECB6  F019         	call	_gpio_pin_initialize	;wreg free
  2626   002F6C                     
  2627                           ;MCAL_Layer/CCP/hal_ccp.c: 65:         CCP_Interrupt_Config(_ccp_obj);
  2628   002F6C  C067  F002         	movff	CCP_Init@_ccp_obj,CCP_Interrupt_Config@_ccp_obj
  2629   002F70  EC79  F01A         	call	_CCP_Interrupt_Config	;wreg free
  2630   002F74                     
  2631                           ;MCAL_Layer/CCP/hal_ccp.c: 67:         retVal = (Std_ReturnType)0x01;
  2632   002F74  0E01               	movlw	1
  2633   002F76  6E69               	movwf	CCP_Init@retVal^0,c
  2634   002F78                     l4697:
  2635                           
  2636                           ;MCAL_Layer/CCP/hal_ccp.c: 69:     return retVal;
  2637   002F78  5069               	movf	CCP_Init@retVal^0,w,c
  2638   002F7A  0012               	return		;funcret
  2639   002F7C                     __end_of_CCP_Init:
  2640                           	callstack 0
  2641                           
  2642 ;; *************** function _CCP_PWM_Mode_Config *****************
  2643 ;; Defined at:
  2644 ;;		line 330 in file "MCAL_Layer/CCP/hal_ccp.c"
  2645 ;; Parameters:    Size  Location     Type
  2646 ;;  _ccp_obj        1   91[COMRAM] PTR const struct .
  2647 ;;		 -> ccp1_pwm(14), 
  2648 ;; Auto vars:     Size  Location     Type
  2649 ;;		None
  2650 ;; Return value:  Size  Location     Type
  2651 ;;                  1    wreg      void 
  2652 ;; Registers used:
  2653 ;;		wreg, fsr2l, fsr2h, status,2, status,0, prodl, prodh, cstack
  2654 ;; Tracked objects:
  2655 ;;		On entry : 0/0
  2656 ;;		On exit  : 0/0
  2657 ;;		Unchanged: 0/0
  2658 ;; Data sizes:     COMRAM   BANK0   BANK1   BANK2   BANK3   BANK4   BANK5   BANK6   BANK7   BANK8   BANK9  BANK10  BANK1
      +1  BANK12  BANK13  BANK14  BANK15
  2659 ;;      Params:         1       0       0       0       0       0       0       0       0       0       0       0       
      +0       0       0       0       0
  2660 ;;      Locals:         8       0       0       0       0       0       0       0       0       0       0       0       
      +0       0       0       0       0
  2661 ;;      Temps:          2       0       0       0       0       0       0       0       0       0       0       0       
      +0       0       0       0       0
  2662 ;;      Totals:        11       0       0       0       0       0       0       0       0       0       0       0       
      +0       0       0       0       0
  2663 ;;Total ram usage:       11 bytes
  2664 ;; Hardware stack levels used: 1
  2665 ;; Hardware stack levels required when called: 3
  2666 ;; This function calls:
  2667 ;;		___fladd
  2668 ;;		___fldiv
  2669 ;;		___flmul
  2670 ;;		___fltol
  2671 ;;		___xxtofl
  2672 ;; This function is called by:
  2673 ;;		_CCP_Init
  2674 ;; This function uses a non-reentrant model
  2675 ;;
  2676                           
  2677                           	psect	text12
  2678   0024CA                     __ptext12:
  2679                           	callstack 0
  2680   0024CA                     _CCP_PWM_Mode_Config:
  2681                           	callstack 24
  2682   0024CA                     
  2683                           ;MCAL_Layer/CCP/hal_ccp.c: 331:     if(CCP1_INST == _ccp_obj->ccp_inst){
  2684   0024CA  505C               	movf	CCP_PWM_Mode_Config@_ccp_obj^0,w,c
  2685   0024CC  6ED9               	movwf	fsr2l,c
  2686   0024CE  6ADA               	clrf	fsr2h,c
  2687   0024D0  50DF               	movf	indf2,w,c
  2688   0024D2  A4D8               	btfss	status,2,c
  2689   0024D4  EF6E  F012         	goto	u4241
  2690   0024D8  EF70  F012         	goto	u4240
  2691   0024DC                     u4241:
  2692   0024DC  EF84  F012         	goto	l4513
  2693   0024E0                     u4240:
  2694   0024E0                     
  2695                           ;MCAL_Layer/CCP/hal_ccp.c: 332:         if(((uint8)0x0C) == _ccp_obj->ccp_mode_variant){
  2696   0024E0  505C               	movf	CCP_PWM_Mode_Config@_ccp_obj^0,w,c
  2697   0024E2  6ED9               	movwf	fsr2l,c
  2698   0024E4  6ADA               	clrf	fsr2h,c
  2699   0024E6  0E02               	movlw	2
  2700   0024E8  26D9               	addwf	fsr2l,f,c
  2701   0024EA  0E0C               	movlw	12
  2702   0024EC  18DE               	xorwf	postinc2,w,c
  2703   0024EE  A4D8               	btfss	status,2,c
  2704   0024F0  EF7C  F012         	goto	u4251
  2705   0024F4  EF7E  F012         	goto	u4250
  2706   0024F8                     u4251:
  2707   0024F8  EFA1  F012         	goto	l4519
  2708   0024FC                     u4250:
  2709   0024FC                     
  2710                           ;MCAL_Layer/CCP/hal_ccp.c: 333:             (CCP1CONbits.CCP1M = ((uint8)0x0C));
  2711   0024FC  50BD               	movf	189,w,c	;volatile
  2712   0024FE  0BF0               	andlw	-16
  2713   002500  090C               	iorlw	12
  2714   002502  6EBD               	movwf	189,c	;volatile
  2715                           
  2716                           ;MCAL_Layer/CCP/hal_ccp.c: 334:         }
  2717   002504  EFA1  F012         	goto	l4519
  2718   002508                     l4513:
  2719   002508  505C               	movf	CCP_PWM_Mode_Config@_ccp_obj^0,w,c
  2720   00250A  6ED9               	movwf	fsr2l,c
  2721   00250C  6ADA               	clrf	fsr2h,c
  2722   00250E  04DE               	decf	postinc2,w,c
  2723   002510  A4D8               	btfss	status,2,c
  2724   002512  EF8D  F012         	goto	u4261
  2725   002516  EF8F  F012         	goto	u4260
  2726   00251A                     u4261:
  2727   00251A  EFA1  F012         	goto	l4519
  2728   00251E                     u4260:
  2729   00251E                     
  2730                           ;MCAL_Layer/CCP/hal_ccp.c: 338:         if(((uint8)0x0C) == _ccp_obj->ccp_mode_variant){
  2731   00251E  505C               	movf	CCP_PWM_Mode_Config@_ccp_obj^0,w,c
  2732   002520  6ED9               	movwf	fsr2l,c
  2733   002522  6ADA               	clrf	fsr2h,c
  2734   002524  0E02               	movlw	2
  2735   002526  26D9               	addwf	fsr2l,f,c
  2736   002528  0E0C               	movlw	12
  2737   00252A  18DE               	xorwf	postinc2,w,c
  2738   00252C  A4D8               	btfss	status,2,c
  2739   00252E  EF9B  F012         	goto	u4271
  2740   002532  EF9D  F012         	goto	u4270
  2741   002536                     u4271:
  2742   002536  EFA1  F012         	goto	l4519
  2743   00253A                     u4270:
  2744   00253A                     
  2745                           ;MCAL_Layer/CCP/hal_ccp.c: 339:             (CCP2CONbits.CCP2M = ((uint8)0x0C));
  2746   00253A  50BA               	movf	186,w,c	;volatile
  2747   00253C  0BF0               	andlw	-16
  2748   00253E  090C               	iorlw	12
  2749   002540  6EBA               	movwf	186,c	;volatile
  2750   002542                     l4519:
  2751                           
  2752                           ;MCAL_Layer/CCP/hal_ccp.c: 346:     PR2 = (uint8)((8000000UL / (_ccp_obj->PWM_Frequency 
      +                          * 4.0 * _ccp_obj->timer2_prescaler_value *
  2753   002542  0E00               	movlw	0
  2754   002544  6E14               	movwf	___flmul@a^0,c
  2755   002546  0E00               	movlw	0
  2756   002548  6E15               	movwf	(___flmul@a+1)^0,c
  2757   00254A  0E80               	movlw	128
  2758   00254C  6E16               	movwf	(___flmul@a+2)^0,c
  2759   00254E  0E40               	movlw	64
  2760   002550  6E17               	movwf	(___flmul@a+3)^0,c
  2761   002552  505C               	movf	CCP_PWM_Mode_Config@_ccp_obj^0,w,c
  2762   002554  6ED9               	movwf	fsr2l,c
  2763   002556  6ADA               	clrf	fsr2h,c
  2764   002558  0E05               	movlw	5
  2765   00255A  26D9               	addwf	fsr2l,f,c
  2766   00255C  CFDE F05D          	movff	postinc2,??_CCP_PWM_Mode_Config
  2767   002560  CFDD F05E          	movff	postdec2,??_CCP_PWM_Mode_Config+1
  2768   002564  C05D  F002         	movff	??_CCP_PWM_Mode_Config,___xxtofl@val
  2769   002568  C05E  F003         	movff	??_CCP_PWM_Mode_Config+1,___xxtofl@val+1
  2770   00256C  6A04               	clrf	(___xxtofl@val+2)^0,c
  2771   00256E  6A05               	clrf	(___xxtofl@val+3)^0,c
  2772   002570  0E00               	movlw	0
  2773   002572  EC4A  F013         	call	___xxtofl
  2774   002576  C002  F010         	movff	?___xxtofl,___flmul@b
  2775   00257A  C003  F011         	movff	?___xxtofl+1,___flmul@b+1
  2776   00257E  C004  F012         	movff	?___xxtofl+2,___flmul@b+2
  2777   002582  C005  F013         	movff	?___xxtofl+3,___flmul@b+3
  2778   002586  ECE0  F00C         	call	___flmul	;wreg free
  2779   00258A  C010  F05F         	movff	?___flmul,_CCP_PWM_Mode_Config$3538
  2780   00258E  C011  F060         	movff	?___flmul+1,_CCP_PWM_Mode_Config$3538+1
  2781   002592  C012  F061         	movff	?___flmul+2,_CCP_PWM_Mode_Config$3538+2
  2782   002596  C013  F062         	movff	?___flmul+3,_CCP_PWM_Mode_Config$3538+3
  2783                           
  2784                           ;MCAL_Layer/CCP/hal_ccp.c: 346:     PR2 = (uint8)((8000000UL / (_ccp_obj->PWM_Frequency 
      +                          * 4.0 * _ccp_obj->timer2_prescaler_value *
  2785   00259A  505C               	movf	CCP_PWM_Mode_Config@_ccp_obj^0,w,c
  2786   00259C  6ED9               	movwf	fsr2l,c
  2787   00259E  6ADA               	clrf	fsr2h,c
  2788   0025A0  0E07               	movlw	7
  2789   0025A2  26D9               	addwf	fsr2l,f,c
  2790   0025A4  38DF               	swapf	223,w,c
  2791   0025A6  0B03               	andlw	3
  2792   0025A8  6E5D               	movwf	??_CCP_PWM_Mode_Config^0,c
  2793   0025AA  505D               	movf	??_CCP_PWM_Mode_Config^0,w,c
  2794   0025AC  6E02               	movwf	___xxtofl@val^0,c
  2795   0025AE  6A03               	clrf	(___xxtofl@val+1)^0,c
  2796   0025B0  6A04               	clrf	(___xxtofl@val+2)^0,c
  2797   0025B2  6A05               	clrf	(___xxtofl@val+3)^0,c
  2798   0025B4  0E01               	movlw	1
  2799   0025B6  EC4A  F013         	call	___xxtofl
  2800   0025BA  C002  F014         	movff	?___xxtofl,___flmul@a
  2801   0025BE  C003  F015         	movff	?___xxtofl+1,___flmul@a+1
  2802   0025C2  C004  F016         	movff	?___xxtofl+2,___flmul@a+2
  2803   0025C6  C005  F017         	movff	?___xxtofl+3,___flmul@a+3
  2804   0025CA  C05F  F010         	movff	_CCP_PWM_Mode_Config$3538,___flmul@b
  2805   0025CE  C060  F011         	movff	_CCP_PWM_Mode_Config$3538+1,___flmul@b+1
  2806   0025D2  C061  F012         	movff	_CCP_PWM_Mode_Config$3538+2,___flmul@b+2
  2807   0025D6  C062  F013         	movff	_CCP_PWM_Mode_Config$3538+3,___flmul@b+3
  2808   0025DA  ECE0  F00C         	call	___flmul	;wreg free
  2809   0025DE  C010  F063         	movff	?___flmul,_CCP_PWM_Mode_Config$3539
  2810   0025E2  C011  F064         	movff	?___flmul+1,_CCP_PWM_Mode_Config$3539+1
  2811   0025E6  C012  F065         	movff	?___flmul+2,_CCP_PWM_Mode_Config$3539+2
  2812   0025EA  C013  F066         	movff	?___flmul+3,_CCP_PWM_Mode_Config$3539+3
  2813                           
  2814                           ;MCAL_Layer/CCP/hal_ccp.c: 346:     PR2 = (uint8)((8000000UL / (_ccp_obj->PWM_Frequency 
      +                          * 4.0 * _ccp_obj->timer2_prescaler_value *
  2815   0025EE  0E00               	movlw	0
  2816   0025F0  6E46               	movwf	___fladd@a^0,c
  2817   0025F2  0E00               	movlw	0
  2818   0025F4  6E47               	movwf	(___fladd@a+1)^0,c
  2819   0025F6  0E80               	movlw	128
  2820   0025F8  6E48               	movwf	(___fladd@a+2)^0,c
  2821   0025FA  0EBF               	movlw	191
  2822   0025FC  6E49               	movwf	(___fladd@a+3)^0,c
  2823   0025FE  505C               	movf	CCP_PWM_Mode_Config@_ccp_obj^0,w,c
  2824   002600  6ED9               	movwf	fsr2l,c
  2825   002602  6ADA               	clrf	fsr2h,c
  2826   002604  0E07               	movlw	7
  2827   002606  26D9               	addwf	fsr2l,f,c
  2828   002608  50DF               	movf	223,w,c
  2829   00260A  0B0F               	andlw	15
  2830   00260C  6E5D               	movwf	??_CCP_PWM_Mode_Config^0,c
  2831   00260E  505D               	movf	??_CCP_PWM_Mode_Config^0,w,c
  2832   002610  6E02               	movwf	___xxtofl@val^0,c
  2833   002612  6A03               	clrf	(___xxtofl@val+1)^0,c
  2834   002614  6A04               	clrf	(___xxtofl@val+2)^0,c
  2835   002616  6A05               	clrf	(___xxtofl@val+3)^0,c
  2836   002618  0E01               	movlw	1
  2837   00261A  EC4A  F013         	call	___xxtofl
  2838   00261E  C002  F014         	movff	?___xxtofl,___flmul@a
  2839   002622  C003  F015         	movff	?___xxtofl+1,___flmul@a+1
  2840   002626  C004  F016         	movff	?___xxtofl+2,___flmul@a+2
  2841   00262A  C005  F017         	movff	?___xxtofl+3,___flmul@a+3
  2842   00262E  C063  F010         	movff	_CCP_PWM_Mode_Config$3539,___flmul@b
  2843   002632  C064  F011         	movff	_CCP_PWM_Mode_Config$3539+1,___flmul@b+1
  2844   002636  C065  F012         	movff	_CCP_PWM_Mode_Config$3539+2,___flmul@b+2
  2845   00263A  C066  F013         	movff	_CCP_PWM_Mode_Config$3539+3,___flmul@b+3
  2846   00263E  ECE0  F00C         	call	___flmul	;wreg free
  2847   002642  C010  F02D         	movff	?___flmul,___fldiv@a
  2848   002646  C011  F02E         	movff	?___flmul+1,___fldiv@a+1
  2849   00264A  C012  F02F         	movff	?___flmul+2,___fldiv@a+2
  2850   00264E  C013  F030         	movff	?___flmul+3,___fldiv@a+3
  2851   002652  0E00               	movlw	0
  2852   002654  6E29               	movwf	___fldiv@b^0,c
  2853   002656  0E24               	movlw	36
  2854   002658  6E2A               	movwf	(___fldiv@b+1)^0,c
  2855   00265A  0EF4               	movlw	244
  2856   00265C  6E2B               	movwf	(___fldiv@b+2)^0,c
  2857   00265E  0E4A               	movlw	74
  2858   002660  6E2C               	movwf	(___fldiv@b+3)^0,c
  2859   002662  ECF5  F00E         	call	___fldiv	;wreg free
  2860   002666  C029  F042         	movff	?___fldiv,___fladd@b
  2861   00266A  C02A  F043         	movff	?___fldiv+1,___fladd@b+1
  2862   00266E  C02B  F044         	movff	?___fldiv+2,___fladd@b+2
  2863   002672  C02C  F045         	movff	?___fldiv+3,___fladd@b+3
  2864   002676  EC80  F00A         	call	___fladd	;wreg free
  2865   00267A  C042  F052         	movff	?___fladd,___fltol@f1
  2866   00267E  C043  F053         	movff	?___fladd+1,___fltol@f1+1
  2867   002682  C044  F054         	movff	?___fladd+2,___fltol@f1+2
  2868   002686  C045  F055         	movff	?___fladd+3,___fltol@f1+3
  2869   00268A  EC59  F016         	call	___fltol	;wreg free
  2870   00268E  5052               	movf	?___fltol^0,w,c
  2871   002690  6ECB               	movwf	203,c	;volatile
  2872   002692  0012               	return		;funcret
  2873   002694                     __end_of_CCP_PWM_Mode_Config:
  2874                           	callstack 0
  2875                           
  2876 ;; *************** function ___xxtofl *****************
  2877 ;; Defined at:
  2878 ;;		line 10 in file "C:\Program Files\Microchip\xc8\v2.46\pic\sources\c99\common\xxtofl.c"
  2879 ;; Parameters:    Size  Location     Type
  2880 ;;  sign            1    wreg     unsigned char 
  2881 ;;  val             4    1[COMRAM] long 
  2882 ;; Auto vars:     Size  Location     Type
  2883 ;;  sign            1    9[COMRAM] unsigned char 
  2884 ;;  arg             4   11[COMRAM] unsigned long 
  2885 ;;  exp             1   10[COMRAM] unsigned char 
  2886 ;; Return value:  Size  Location     Type
  2887 ;;                  4    1[COMRAM] unsigned char 
  2888 ;; Registers used:
  2889 ;;		wreg, status,2, status,0
  2890 ;; Tracked objects:
  2891 ;;		On entry : 0/0
  2892 ;;		On exit  : 0/0
  2893 ;;		Unchanged: 0/0
  2894 ;; Data sizes:     COMRAM   BANK0   BANK1   BANK2   BANK3   BANK4   BANK5   BANK6   BANK7   BANK8   BANK9  BANK10  BANK1
      +1  BANK12  BANK13  BANK14  BANK15
  2895 ;;      Params:         4       0       0       0       0       0       0       0       0       0       0       0       
      +0       0       0       0       0
  2896 ;;      Locals:         6       0       0       0       0       0       0       0       0       0       0       0       
      +0       0       0       0       0
  2897 ;;      Temps:          4       0       0       0       0       0       0       0       0       0       0       0       
      +0       0       0       0       0
  2898 ;;      Totals:        14       0       0       0       0       0       0       0       0       0       0       0       
      +0       0       0       0       0
  2899 ;;Total ram usage:       14 bytes
  2900 ;; Hardware stack levels used: 1
  2901 ;; Hardware stack levels required when called: 2
  2902 ;; This function calls:
  2903 ;;		Nothing
  2904 ;; This function is called by:
  2905 ;;		_CCP_PWM_Mode_Config
  2906 ;;		_EUSART_Baud_Rate_Calculation
  2907 ;;		_CCP_PWM_Set_Duty
  2908 ;; This function uses a non-reentrant model
  2909 ;;
  2910                           
  2911                           	psect	text13
  2912   002694                     __ptext13:
  2913                           	callstack 0
  2914   002694                     ___xxtofl:
  2915                           	callstack 24
  2916                           
  2917                           ;incstack = 0
  2918                           ;___xxtofl@sign stored from wreg
  2919   002694  6E0A               	movwf	___xxtofl@sign^0,c
  2920   002696  500A               	movf	___xxtofl@sign^0,w,c
  2921   002698  B4D8               	btfsc	status,2,c
  2922   00269A  EF51  F013         	goto	u4081
  2923   00269E  EF53  F013         	goto	u4080
  2924   0026A2                     u4081:
  2925   0026A2  EF75  F013         	goto	l1661
  2926   0026A6                     u4080:
  2927   0026A6  BE05               	btfsc	(___xxtofl@val+3)^0,7,c
  2928   0026A8  EF5A  F013         	goto	u4090
  2929   0026AC  EF58  F013         	goto	u4091
  2930   0026B0                     u4091:
  2931   0026B0  EF75  F013         	goto	l1661
  2932   0026B4                     u4090:
  2933   0026B4  C002  F006         	movff	___xxtofl@val,??___xxtofl
  2934   0026B8  C003  F007         	movff	___xxtofl@val+1,??___xxtofl+1
  2935   0026BC  C004  F008         	movff	___xxtofl@val+2,??___xxtofl+2
  2936   0026C0  C005  F009         	movff	___xxtofl@val+3,??___xxtofl+3
  2937   0026C4  1E06               	comf	??___xxtofl^0,f,c
  2938   0026C6  1E07               	comf	(??___xxtofl+1)^0,f,c
  2939   0026C8  1E08               	comf	(??___xxtofl+2)^0,f,c
  2940   0026CA  1E09               	comf	(??___xxtofl+3)^0,f,c
  2941   0026CC  2A06               	incf	??___xxtofl^0,f,c
  2942   0026CE  0E00               	movlw	0
  2943   0026D0  2207               	addwfc	(??___xxtofl+1)^0,f,c
  2944   0026D2  2208               	addwfc	(??___xxtofl+2)^0,f,c
  2945   0026D4  2209               	addwfc	(??___xxtofl+3)^0,f,c
  2946   0026D6  C006  F00C         	movff	??___xxtofl,___xxtofl@arg
  2947   0026DA  C007  F00D         	movff	??___xxtofl+1,___xxtofl@arg+1
  2948   0026DE  C008  F00E         	movff	??___xxtofl+2,___xxtofl@arg+2
  2949   0026E2  C009  F00F         	movff	??___xxtofl+3,___xxtofl@arg+3
  2950   0026E6  EF7D  F013         	goto	l4369
  2951   0026EA                     l1661:
  2952   0026EA  C002  F00C         	movff	___xxtofl@val,___xxtofl@arg
  2953   0026EE  C003  F00D         	movff	___xxtofl@val+1,___xxtofl@arg+1
  2954   0026F2  C004  F00E         	movff	___xxtofl@val+2,___xxtofl@arg+2
  2955   0026F6  C005  F00F         	movff	___xxtofl@val+3,___xxtofl@arg+3
  2956   0026FA                     l4369:
  2957   0026FA  5002               	movf	___xxtofl@val^0,w,c
  2958   0026FC  1003               	iorwf	(___xxtofl@val+1)^0,w,c
  2959   0026FE  1004               	iorwf	(___xxtofl@val+2)^0,w,c
  2960   002700  1005               	iorwf	(___xxtofl@val+3)^0,w,c
  2961   002702  A4D8               	btfss	status,2,c
  2962   002704  EF86  F013         	goto	u4101
  2963   002708  EF88  F013         	goto	u4100
  2964   00270C                     u4101:
  2965   00270C  EF92  F013         	goto	l4375
  2966   002710                     u4100:
  2967   002710  0E00               	movlw	0
  2968   002712  6E02               	movwf	?___xxtofl^0,c
  2969   002714  0E00               	movlw	0
  2970   002716  6E03               	movwf	(?___xxtofl+1)^0,c
  2971   002718  0E00               	movlw	0
  2972   00271A  6E04               	movwf	(?___xxtofl+2)^0,c
  2973   00271C  0E00               	movlw	0
  2974   00271E  6E05               	movwf	(?___xxtofl+3)^0,c
  2975   002720  EF23  F014         	goto	l1664
  2976   002724                     l4375:
  2977   002724  0E96               	movlw	150
  2978   002726  6E0B               	movwf	___xxtofl@exp^0,c
  2979   002728  EF9C  F013         	goto	l4379
  2980   00272C                     l4377:
  2981   00272C  2A0B               	incf	___xxtofl@exp^0,f,c
  2982   00272E  90D8               	bcf	status,0,c
  2983   002730  320F               	rrcf	(___xxtofl@arg+3)^0,f,c
  2984   002732  320E               	rrcf	(___xxtofl@arg+2)^0,f,c
  2985   002734  320D               	rrcf	(___xxtofl@arg+1)^0,f,c
  2986   002736  320C               	rrcf	___xxtofl@arg^0,f,c
  2987   002738                     l4379:
  2988   002738  0E00               	movlw	0
  2989   00273A  140C               	andwf	___xxtofl@arg^0,w,c
  2990   00273C  6E06               	movwf	??___xxtofl^0,c
  2991   00273E  0E00               	movlw	0
  2992   002740  140D               	andwf	(___xxtofl@arg+1)^0,w,c
  2993   002742  6E07               	movwf	(??___xxtofl+1)^0,c
  2994   002744  0E00               	movlw	0
  2995   002746  140E               	andwf	(___xxtofl@arg+2)^0,w,c
  2996   002748  6E08               	movwf	(??___xxtofl+2)^0,c
  2997   00274A  0EFE               	movlw	254
  2998   00274C  140F               	andwf	(___xxtofl@arg+3)^0,w,c
  2999   00274E  6E09               	movwf	(??___xxtofl+3)^0,c
  3000   002750  5006               	movf	??___xxtofl^0,w,c
  3001   002752  1007               	iorwf	(??___xxtofl+1)^0,w,c
  3002   002754  1008               	iorwf	(??___xxtofl+2)^0,w,c
  3003   002756  1009               	iorwf	(??___xxtofl+3)^0,w,c
  3004   002758  A4D8               	btfss	status,2,c
  3005   00275A  EFB1  F013         	goto	u4111
  3006   00275E  EFB3  F013         	goto	u4110
  3007   002762                     u4111:
  3008   002762  EF96  F013         	goto	l4377
  3009   002766                     u4110:
  3010   002766  EFC1  F013         	goto	l1668
  3011   00276A                     l4381:
  3012   00276A  2A0B               	incf	___xxtofl@exp^0,f,c
  3013   00276C  0E01               	movlw	1
  3014   00276E  260C               	addwf	___xxtofl@arg^0,f,c
  3015   002770  0E00               	movlw	0
  3016   002772  220D               	addwfc	(___xxtofl@arg+1)^0,f,c
  3017   002774  220E               	addwfc	(___xxtofl@arg+2)^0,f,c
  3018   002776  220F               	addwfc	(___xxtofl@arg+3)^0,f,c
  3019   002778  90D8               	bcf	status,0,c
  3020   00277A  320F               	rrcf	(___xxtofl@arg+3)^0,f,c
  3021   00277C  320E               	rrcf	(___xxtofl@arg+2)^0,f,c
  3022   00277E  320D               	rrcf	(___xxtofl@arg+1)^0,f,c
  3023   002780  320C               	rrcf	___xxtofl@arg^0,f,c
  3024   002782                     l1668:
  3025   002782  0E00               	movlw	0
  3026   002784  140C               	andwf	___xxtofl@arg^0,w,c
  3027   002786  6E06               	movwf	??___xxtofl^0,c
  3028   002788  0E00               	movlw	0
  3029   00278A  140D               	andwf	(___xxtofl@arg+1)^0,w,c
  3030   00278C  6E07               	movwf	(??___xxtofl+1)^0,c
  3031   00278E  0E00               	movlw	0
  3032   002790  140E               	andwf	(___xxtofl@arg+2)^0,w,c
  3033   002792  6E08               	movwf	(??___xxtofl+2)^0,c
  3034   002794  0EFF               	movlw	255
  3035   002796  140F               	andwf	(___xxtofl@arg+3)^0,w,c
  3036   002798  6E09               	movwf	(??___xxtofl+3)^0,c
  3037   00279A  5006               	movf	??___xxtofl^0,w,c
  3038   00279C  1007               	iorwf	(??___xxtofl+1)^0,w,c
  3039   00279E  1008               	iorwf	(??___xxtofl+2)^0,w,c
  3040   0027A0  1009               	iorwf	(??___xxtofl+3)^0,w,c
  3041   0027A2  A4D8               	btfss	status,2,c
  3042   0027A4  EFD6  F013         	goto	u4121
  3043   0027A8  EFD8  F013         	goto	u4120
  3044   0027AC                     u4121:
  3045   0027AC  EFB5  F013         	goto	l4381
  3046   0027B0                     u4120:
  3047   0027B0  EFE0  F013         	goto	l4389
  3048   0027B4                     l4387:
  3049   0027B4  060B               	decf	___xxtofl@exp^0,f,c
  3050   0027B6  90D8               	bcf	status,0,c
  3051   0027B8  360C               	rlcf	___xxtofl@arg^0,f,c
  3052   0027BA  360D               	rlcf	(___xxtofl@arg+1)^0,f,c
  3053   0027BC  360E               	rlcf	(___xxtofl@arg+2)^0,f,c
  3054   0027BE  360F               	rlcf	(___xxtofl@arg+3)^0,f,c
  3055   0027C0                     l4389:
  3056   0027C0  BE0E               	btfsc	(___xxtofl@arg+2)^0,7,c
  3057   0027C2  EFE5  F013         	goto	u4131
  3058   0027C6  EFE7  F013         	goto	u4130
  3059   0027CA                     u4131:
  3060   0027CA  EFEF  F013         	goto	l1675
  3061   0027CE                     u4130:
  3062   0027CE  0E02               	movlw	2
  3063   0027D0  600B               	cpfslt	___xxtofl@exp^0,c
  3064   0027D2  EFED  F013         	goto	u4141
  3065   0027D6  EFEF  F013         	goto	u4140
  3066   0027DA                     u4141:
  3067   0027DA  EFDA  F013         	goto	l4387
  3068   0027DE                     u4140:
  3069   0027DE                     l1675:
  3070   0027DE  B00B               	btfsc	___xxtofl@exp^0,0,c
  3071   0027E0  EFF4  F013         	goto	u4151
  3072   0027E4  EFF6  F013         	goto	u4150
  3073   0027E8                     u4151:
  3074   0027E8  EFF7  F013         	goto	l4395
  3075   0027EC                     u4150:
  3076   0027EC  9E0E               	bcf	(___xxtofl@arg+2)^0,7,c
  3077   0027EE                     l4395:
  3078   0027EE  90D8               	bcf	status,0,c
  3079   0027F0  320B               	rrcf	___xxtofl@exp^0,f,c
  3080   0027F2  C00B  F006         	movff	___xxtofl@exp,??___xxtofl
  3081   0027F6  6A07               	clrf	(??___xxtofl+1)^0,c
  3082   0027F8  6A08               	clrf	(??___xxtofl+2)^0,c
  3083   0027FA  6A09               	clrf	(??___xxtofl+3)^0,c
  3084   0027FC  C006  F009         	movff	??___xxtofl,??___xxtofl+3
  3085   002800  6A08               	clrf	(??___xxtofl+2)^0,c
  3086   002802  6A07               	clrf	(??___xxtofl+1)^0,c
  3087   002804  6A06               	clrf	??___xxtofl^0,c
  3088   002806  5006               	movf	??___xxtofl^0,w,c
  3089   002808  120C               	iorwf	___xxtofl@arg^0,f,c
  3090   00280A  5007               	movf	(??___xxtofl+1)^0,w,c
  3091   00280C  120D               	iorwf	(___xxtofl@arg+1)^0,f,c
  3092   00280E  5008               	movf	(??___xxtofl+2)^0,w,c
  3093   002810  120E               	iorwf	(___xxtofl@arg+2)^0,f,c
  3094   002812  5009               	movf	(??___xxtofl+3)^0,w,c
  3095   002814  120F               	iorwf	(___xxtofl@arg+3)^0,f,c
  3096   002816  500A               	movf	___xxtofl@sign^0,w,c
  3097   002818  B4D8               	btfsc	status,2,c
  3098   00281A  EF11  F014         	goto	u4161
  3099   00281E  EF13  F014         	goto	u4160
  3100   002822                     u4161:
  3101   002822  EF1B  F014         	goto	l4405
  3102   002826                     u4160:
  3103   002826  BE05               	btfsc	(___xxtofl@val+3)^0,7,c
  3104   002828  EF1A  F014         	goto	u4170
  3105   00282C  EF18  F014         	goto	u4171
  3106   002830                     u4171:
  3107   002830  EF1B  F014         	goto	l4405
  3108   002834                     u4170:
  3109   002834  8E0F               	bsf	(___xxtofl@arg+3)^0,7,c
  3110   002836                     l4405:
  3111   002836  C00C  F002         	movff	___xxtofl@arg,?___xxtofl
  3112   00283A  C00D  F003         	movff	___xxtofl@arg+1,?___xxtofl+1
  3113   00283E  C00E  F004         	movff	___xxtofl@arg+2,?___xxtofl+2
  3114   002842  C00F  F005         	movff	___xxtofl@arg+3,?___xxtofl+3
  3115   002846                     l1664:
  3116   002846  0012               	return		;funcret
  3117   002848                     __end_of___xxtofl:
  3118                           	callstack 0
  3119                           
  3120 ;; *************** function ___fltol *****************
  3121 ;; Defined at:
  3122 ;;		line 43 in file "C:\Program Files\Microchip\xc8\v2.46\pic\sources\c99\common\fltol.c"
  3123 ;; Parameters:    Size  Location     Type
  3124 ;;  f1              4   81[COMRAM] unsigned char 
  3125 ;; Auto vars:     Size  Location     Type
  3126 ;;  exp1            1   90[COMRAM] unsigned char 
  3127 ;;  sign1           1   89[COMRAM] unsigned char 
  3128 ;; Return value:  Size  Location     Type
  3129 ;;                  4   81[COMRAM] long 
  3130 ;; Registers used:
  3131 ;;		wreg, status,2, status,0
  3132 ;; Tracked objects:
  3133 ;;		On entry : 0/0
  3134 ;;		On exit  : 0/0
  3135 ;;		Unchanged: 0/0
  3136 ;; Data sizes:     COMRAM   BANK0   BANK1   BANK2   BANK3   BANK4   BANK5   BANK6   BANK7   BANK8   BANK9  BANK10  BANK1
      +1  BANK12  BANK13  BANK14  BANK15
  3137 ;;      Params:         4       0       0       0       0       0       0       0       0       0       0       0       
      +0       0       0       0       0
  3138 ;;      Locals:         2       0       0       0       0       0       0       0       0       0       0       0       
      +0       0       0       0       0
  3139 ;;      Temps:          4       0       0       0       0       0       0       0       0       0       0       0       
      +0       0       0       0       0
  3140 ;;      Totals:        10       0       0       0       0       0       0       0       0       0       0       0       
      +0       0       0       0       0
  3141 ;;Total ram usage:       10 bytes
  3142 ;; Hardware stack levels used: 1
  3143 ;; Hardware stack levels required when called: 2
  3144 ;; This function calls:
  3145 ;;		Nothing
  3146 ;; This function is called by:
  3147 ;;		_CCP_PWM_Mode_Config
  3148 ;;		_EUSART_Baud_Rate_Calculation
  3149 ;;		_CCP_PWM_Set_Duty
  3150 ;; This function uses a non-reentrant model
  3151 ;;
  3152                           
  3153                           	psect	text14
  3154   002CB2                     __ptext14:
  3155                           	callstack 0
  3156   002CB2                     ___fltol:
  3157                           	callstack 24
  3158   002CB2  3454               	rlcf	(___fltol@f1+2)^0,w,c
  3159   002CB4  3455               	rlcf	(___fltol@f1+3)^0,w,c
  3160   002CB6  6E5B               	movwf	___fltol@exp1^0,c
  3161   002CB8  505B               	movf	___fltol@exp1^0,w,c
  3162   002CBA  A4D8               	btfss	status,2,c
  3163   002CBC  EF62  F016         	goto	u4011
  3164   002CC0  EF64  F016         	goto	u4010
  3165   002CC4                     u4011:
  3166   002CC4  EF6E  F016         	goto	l4325
  3167   002CC8                     u4010:
  3168   002CC8                     l4321:
  3169   002CC8  0E00               	movlw	0
  3170   002CCA  6E52               	movwf	?___fltol^0,c
  3171   002CCC  0E00               	movlw	0
  3172   002CCE  6E53               	movwf	(?___fltol+1)^0,c
  3173   002CD0  0E00               	movlw	0
  3174   002CD2  6E54               	movwf	(?___fltol+2)^0,c
  3175   002CD4  0E00               	movlw	0
  3176   002CD6  6E55               	movwf	(?___fltol+3)^0,c
  3177   002CD8  EFDB  F016         	goto	l1303
  3178   002CDC                     l4325:
  3179   002CDC  C052  F056         	movff	___fltol@f1,??___fltol
  3180   002CE0  C053  F057         	movff	___fltol@f1+1,??___fltol+1
  3181   002CE4  C054  F058         	movff	___fltol@f1+2,??___fltol+2
  3182   002CE8  C055  F059         	movff	___fltol@f1+3,??___fltol+3
  3183   002CEC  0E20               	movlw	32
  3184   002CEE  EF7E  F016         	goto	u4020
  3185   002CF2                     u4025:
  3186   002CF2  90D8               	bcf	status,0,c
  3187   002CF4  3259               	rrcf	(??___fltol+3)^0,f,c
  3188   002CF6  3258               	rrcf	(??___fltol+2)^0,f,c
  3189   002CF8  3257               	rrcf	(??___fltol+1)^0,f,c
  3190   002CFA  3256               	rrcf	??___fltol^0,f,c
  3191   002CFC                     u4020:
  3192   002CFC  2EE8               	decfsz	wreg,f,c
  3193   002CFE  EF79  F016         	goto	u4025
  3194   002D02  5056               	movf	??___fltol^0,w,c
  3195   002D04  6E5A               	movwf	___fltol@sign1^0,c
  3196   002D06  8E54               	bsf	(___fltol@f1+2)^0,7,c
  3197   002D08  0EFF               	movlw	255
  3198   002D0A  1652               	andwf	___fltol@f1^0,f,c
  3199   002D0C  0EFF               	movlw	255
  3200   002D0E  1653               	andwf	(___fltol@f1+1)^0,f,c
  3201   002D10  0EFF               	movlw	255
  3202   002D12  1654               	andwf	(___fltol@f1+2)^0,f,c
  3203   002D14  0E00               	movlw	0
  3204   002D16  1655               	andwf	(___fltol@f1+3)^0,f,c
  3205   002D18  0E96               	movlw	150
  3206   002D1A  5E5B               	subwf	___fltol@exp1^0,f,c
  3207   002D1C  BE5B               	btfsc	___fltol@exp1^0,7,c
  3208   002D1E  EF95  F016         	goto	u4030
  3209   002D22  EF93  F016         	goto	u4031
  3210   002D26                     u4031:
  3211   002D26  EFAB  F016         	goto	l4345
  3212   002D2A                     u4030:
  3213   002D2A  505B               	movf	___fltol@exp1^0,w,c
  3214   002D2C  0A80               	xorlw	128
  3215   002D2E  0F97               	addlw	151
  3216   002D30  B0D8               	btfsc	status,0,c
  3217   002D32  EF9D  F016         	goto	u4041
  3218   002D36  EF9F  F016         	goto	u4040
  3219   002D3A                     u4041:
  3220   002D3A  EFA1  F016         	goto	l4341
  3221   002D3E                     u4040:
  3222   002D3E  EF64  F016         	goto	l4321
  3223   002D42                     l4341:
  3224   002D42  90D8               	bcf	status,0,c
  3225   002D44  3255               	rrcf	(___fltol@f1+3)^0,f,c
  3226   002D46  3254               	rrcf	(___fltol@f1+2)^0,f,c
  3227   002D48  3253               	rrcf	(___fltol@f1+1)^0,f,c
  3228   002D4A  3252               	rrcf	___fltol@f1^0,f,c
  3229   002D4C  3E5B               	incfsz	___fltol@exp1^0,f,c
  3230   002D4E  EFA1  F016         	goto	l4341
  3231   002D52  EFC3  F016         	goto	l4355
  3232   002D56                     l4345:
  3233   002D56  0E1F               	movlw	31
  3234   002D58  645B               	cpfsgt	___fltol@exp1^0,c
  3235   002D5A  EFB1  F016         	goto	u4051
  3236   002D5E  EFB3  F016         	goto	u4050
  3237   002D62                     u4051:
  3238   002D62  EFBB  F016         	goto	l4353
  3239   002D66                     u4050:
  3240   002D66  EF64  F016         	goto	l4321
  3241   002D6A                     l4351:
  3242   002D6A  90D8               	bcf	status,0,c
  3243   002D6C  3652               	rlcf	___fltol@f1^0,f,c
  3244   002D6E  3653               	rlcf	(___fltol@f1+1)^0,f,c
  3245   002D70  3654               	rlcf	(___fltol@f1+2)^0,f,c
  3246   002D72  3655               	rlcf	(___fltol@f1+3)^0,f,c
  3247   002D74  065B               	decf	___fltol@exp1^0,f,c
  3248   002D76                     l4353:
  3249   002D76  505B               	movf	___fltol@exp1^0,w,c
  3250   002D78  A4D8               	btfss	status,2,c
  3251   002D7A  EFC1  F016         	goto	u4061
  3252   002D7E  EFC3  F016         	goto	u4060
  3253   002D82                     u4061:
  3254   002D82  EFB5  F016         	goto	l4351
  3255   002D86                     u4060:
  3256   002D86                     l4355:
  3257   002D86  505A               	movf	___fltol@sign1^0,w,c
  3258   002D88  B4D8               	btfsc	status,2,c
  3259   002D8A  EFC9  F016         	goto	u4071
  3260   002D8E  EFCB  F016         	goto	u4070
  3261   002D92                     u4071:
  3262   002D92  EFD3  F016         	goto	l4359
  3263   002D96                     u4070:
  3264   002D96  1E55               	comf	(___fltol@f1+3)^0,f,c
  3265   002D98  1E54               	comf	(___fltol@f1+2)^0,f,c
  3266   002D9A  1E53               	comf	(___fltol@f1+1)^0,f,c
  3267   002D9C  6C52               	negf	___fltol@f1^0,c
  3268   002D9E  0E00               	movlw	0
  3269   002DA0  2253               	addwfc	(___fltol@f1+1)^0,f,c
  3270   002DA2  2254               	addwfc	(___fltol@f1+2)^0,f,c
  3271   002DA4  2255               	addwfc	(___fltol@f1+3)^0,f,c
  3272   002DA6                     l4359:
  3273   002DA6  C052  F052         	movff	___fltol@f1,?___fltol
  3274   002DAA  C053  F053         	movff	___fltol@f1+1,?___fltol+1
  3275   002DAE  C054  F054         	movff	___fltol@f1+2,?___fltol+2
  3276   002DB2  C055  F055         	movff	___fltol@f1+3,?___fltol+3
  3277   002DB6                     l1303:
  3278   002DB6  0012               	return		;funcret
  3279   002DB8                     __end_of___fltol:
  3280                           	callstack 0
  3281                           
  3282 ;; *************** function ___flmul *****************
  3283 ;; Defined at:
  3284 ;;		line 8 in file "C:\Program Files\Microchip\xc8\v2.46\pic\sources\c99\common\sprcmul.c"
  3285 ;; Parameters:    Size  Location     Type
  3286 ;;  b               4   15[COMRAM] long 
  3287 ;;  a               4   19[COMRAM] long 
  3288 ;; Auto vars:     Size  Location     Type
  3289 ;;  prod            4   34[COMRAM] struct .
  3290 ;;  grs             4   28[COMRAM] unsigned long 
  3291 ;;  temp            2   38[COMRAM] struct .
  3292 ;;  bexp            1   33[COMRAM] unsigned char 
  3293 ;;  aexp            1   32[COMRAM] unsigned char 
  3294 ;;  sign            1   27[COMRAM] unsigned char 
  3295 ;; Return value:  Size  Location     Type
  3296 ;;                  4   15[COMRAM] unsigned char 
  3297 ;; Registers used:
  3298 ;;		wreg, status,2, status,0, prodl, prodh
  3299 ;; Tracked objects:
  3300 ;;		On entry : 0/0
  3301 ;;		On exit  : 0/0
  3302 ;;		Unchanged: 0/0
  3303 ;; Data sizes:     COMRAM   BANK0   BANK1   BANK2   BANK3   BANK4   BANK5   BANK6   BANK7   BANK8   BANK9  BANK10  BANK1
      +1  BANK12  BANK13  BANK14  BANK15
  3304 ;;      Params:         8       0       0       0       0       0       0       0       0       0       0       0       
      +0       0       0       0       0
  3305 ;;      Locals:        13       0       0       0       0       0       0       0       0       0       0       0       
      +0       0       0       0       0
  3306 ;;      Temps:          4       0       0       0       0       0       0       0       0       0       0       0       
      +0       0       0       0       0
  3307 ;;      Totals:        25       0       0       0       0       0       0       0       0       0       0       0       
      +0       0       0       0       0
  3308 ;;Total ram usage:       25 bytes
  3309 ;; Hardware stack levels used: 1
  3310 ;; Hardware stack levels required when called: 2
  3311 ;; This function calls:
  3312 ;;		Nothing
  3313 ;; This function is called by:
  3314 ;;		_CCP_PWM_Mode_Config
  3315 ;;		_CCP_PWM_Set_Duty
  3316 ;; This function uses a non-reentrant model
  3317 ;;
  3318                           
  3319                           	psect	text15
  3320   0019C0                     __ptext15:
  3321                           	callstack 0
  3322   0019C0                     ___flmul:
  3323                           	callstack 24
  3324   0019C0  5013               	movf	(___flmul@b+3)^0,w,c
  3325   0019C2  0B80               	andlw	128
  3326   0019C4  6E1C               	movwf	___flmul@sign^0,c
  3327   0019C6  5013               	movf	(___flmul@b+3)^0,w,c
  3328   0019C8  2413               	addwf	(___flmul@b+3)^0,w,c
  3329   0019CA  6E22               	movwf	___flmul@bexp^0,c
  3330   0019CC  AE12               	btfss	(___flmul@b+2)^0,7,c
  3331   0019CE  EFEB  F00C         	goto	u3821
  3332   0019D2  EFED  F00C         	goto	u3820
  3333   0019D6                     u3821:
  3334   0019D6  EFEE  F00C         	goto	l4195
  3335   0019DA                     u3820:
  3336   0019DA  8022               	bsf	___flmul@bexp^0,0,c
  3337   0019DC                     l4195:
  3338   0019DC  5022               	movf	___flmul@bexp^0,w,c
  3339   0019DE  B4D8               	btfsc	status,2,c
  3340   0019E0  EFF4  F00C         	goto	u3831
  3341   0019E4  EFF6  F00C         	goto	u3830
  3342   0019E8                     u3831:
  3343   0019E8  EF09  F00D         	goto	l4203
  3344   0019EC                     u3830:
  3345   0019EC  2822               	incf	___flmul@bexp^0,w,c
  3346   0019EE  A4D8               	btfss	status,2,c
  3347   0019F0  EFFC  F00C         	goto	u3841
  3348   0019F4  EFFE  F00C         	goto	u3840
  3349   0019F8                     u3841:
  3350   0019F8  EF06  F00D         	goto	l4201
  3351   0019FC                     u3840:
  3352   0019FC  0E00               	movlw	0
  3353   0019FE  6E10               	movwf	___flmul@b^0,c
  3354   001A00  0E00               	movlw	0
  3355   001A02  6E11               	movwf	(___flmul@b+1)^0,c
  3356   001A04  0E00               	movlw	0
  3357   001A06  6E12               	movwf	(___flmul@b+2)^0,c
  3358   001A08  0E00               	movlw	0
  3359   001A0A  6E13               	movwf	(___flmul@b+3)^0,c
  3360   001A0C                     l4201:
  3361   001A0C  8E12               	bsf	(___flmul@b+2)^0,7,c
  3362   001A0E  EF11  F00D         	goto	l4205
  3363   001A12                     l4203:
  3364   001A12  0E00               	movlw	0
  3365   001A14  6E10               	movwf	___flmul@b^0,c
  3366   001A16  0E00               	movlw	0
  3367   001A18  6E11               	movwf	(___flmul@b+1)^0,c
  3368   001A1A  0E00               	movlw	0
  3369   001A1C  6E12               	movwf	(___flmul@b+2)^0,c
  3370   001A1E  0E00               	movlw	0
  3371   001A20  6E13               	movwf	(___flmul@b+3)^0,c
  3372   001A22                     l4205:
  3373   001A22  5017               	movf	(___flmul@a+3)^0,w,c
  3374   001A24  0B80               	andlw	128
  3375   001A26  1A1C               	xorwf	___flmul@sign^0,f,c
  3376   001A28  5017               	movf	(___flmul@a+3)^0,w,c
  3377   001A2A  2417               	addwf	(___flmul@a+3)^0,w,c
  3378   001A2C  6E21               	movwf	___flmul@aexp^0,c
  3379   001A2E  AE16               	btfss	(___flmul@a+2)^0,7,c
  3380   001A30  EF1C  F00D         	goto	u3851
  3381   001A34  EF1E  F00D         	goto	u3850
  3382   001A38                     u3851:
  3383   001A38  EF1F  F00D         	goto	l4213
  3384   001A3C                     u3850:
  3385   001A3C  8021               	bsf	___flmul@aexp^0,0,c
  3386   001A3E                     l4213:
  3387   001A3E  5021               	movf	___flmul@aexp^0,w,c
  3388   001A40  B4D8               	btfsc	status,2,c
  3389   001A42  EF25  F00D         	goto	u3861
  3390   001A46  EF27  F00D         	goto	u3860
  3391   001A4A                     u3861:
  3392   001A4A  EF3A  F00D         	goto	l4221
  3393   001A4E                     u3860:
  3394   001A4E  2821               	incf	___flmul@aexp^0,w,c
  3395   001A50  A4D8               	btfss	status,2,c
  3396   001A52  EF2D  F00D         	goto	u3871
  3397   001A56  EF2F  F00D         	goto	u3870
  3398   001A5A                     u3871:
  3399   001A5A  EF37  F00D         	goto	l4219
  3400   001A5E                     u3870:
  3401   001A5E  0E00               	movlw	0
  3402   001A60  6E14               	movwf	___flmul@a^0,c
  3403   001A62  0E00               	movlw	0
  3404   001A64  6E15               	movwf	(___flmul@a+1)^0,c
  3405   001A66  0E00               	movlw	0
  3406   001A68  6E16               	movwf	(___flmul@a+2)^0,c
  3407   001A6A  0E00               	movlw	0
  3408   001A6C  6E17               	movwf	(___flmul@a+3)^0,c
  3409   001A6E                     l4219:
  3410   001A6E  8E16               	bsf	(___flmul@a+2)^0,7,c
  3411   001A70  EF42  F00D         	goto	l1620
  3412   001A74                     l4221:
  3413   001A74  0E00               	movlw	0
  3414   001A76  6E14               	movwf	___flmul@a^0,c
  3415   001A78  0E00               	movlw	0
  3416   001A7A  6E15               	movwf	(___flmul@a+1)^0,c
  3417   001A7C  0E00               	movlw	0
  3418   001A7E  6E16               	movwf	(___flmul@a+2)^0,c
  3419   001A80  0E00               	movlw	0
  3420   001A82  6E17               	movwf	(___flmul@a+3)^0,c
  3421   001A84                     l1620:
  3422   001A84  5021               	movf	___flmul@aexp^0,w,c
  3423   001A86  B4D8               	btfsc	status,2,c
  3424   001A88  EF48  F00D         	goto	u3881
  3425   001A8C  EF4A  F00D         	goto	u3880
  3426   001A90                     u3881:
  3427   001A90  EF52  F00D         	goto	l4225
  3428   001A94                     u3880:
  3429   001A94  5022               	movf	___flmul@bexp^0,w,c
  3430   001A96  A4D8               	btfss	status,2,c
  3431   001A98  EF50  F00D         	goto	u3891
  3432   001A9C  EF52  F00D         	goto	u3890
  3433   001AA0                     u3891:
  3434   001AA0  EF5C  F00D         	goto	l4229
  3435   001AA4                     u3890:
  3436   001AA4                     l4225:
  3437   001AA4  0E00               	movlw	0
  3438   001AA6  6E10               	movwf	?___flmul^0,c
  3439   001AA8  0E00               	movlw	0
  3440   001AAA  6E11               	movwf	(?___flmul+1)^0,c
  3441   001AAC  0E00               	movlw	0
  3442   001AAE  6E12               	movwf	(?___flmul+2)^0,c
  3443   001AB0  0E00               	movlw	0
  3444   001AB2  6E13               	movwf	(?___flmul+3)^0,c
  3445   001AB4  EFF4  F00E         	goto	l1624
  3446   001AB8                     l4229:
  3447   001AB8  5016               	movf	(___flmul@a+2)^0,w,c
  3448   001ABA  0210               	mulwf	___flmul@b^0,c
  3449   001ABC  CFF3 F027          	movff	prodl,___flmul@temp
  3450   001AC0  CFF4 F028          	movff	prodh,___flmul@temp+1
  3451   001AC4  5027               	movf	___flmul@temp^0,w,c
  3452   001AC6  6E1D               	movwf	___flmul@grs^0,c
  3453   001AC8  6A1E               	clrf	(___flmul@grs+1)^0,c
  3454   001ACA  6A1F               	clrf	(___flmul@grs+2)^0,c
  3455   001ACC  6A20               	clrf	(___flmul@grs+3)^0,c
  3456   001ACE  5028               	movf	(___flmul@temp+1)^0,w,c
  3457   001AD0  6E23               	movwf	___flmul@prod^0,c
  3458   001AD2  6A24               	clrf	(___flmul@prod+1)^0,c
  3459   001AD4  6A25               	clrf	(___flmul@prod+2)^0,c
  3460   001AD6  6A26               	clrf	(___flmul@prod+3)^0,c
  3461   001AD8  5015               	movf	(___flmul@a+1)^0,w,c
  3462   001ADA  0211               	mulwf	(___flmul@b+1)^0,c
  3463   001ADC  CFF3 F027          	movff	prodl,___flmul@temp
  3464   001AE0  CFF4 F028          	movff	prodh,___flmul@temp+1
  3465   001AE4  5027               	movf	___flmul@temp^0,w,c
  3466   001AE6  261D               	addwf	___flmul@grs^0,f,c
  3467   001AE8  0E00               	movlw	0
  3468   001AEA  221E               	addwfc	(___flmul@grs+1)^0,f,c
  3469   001AEC  221F               	addwfc	(___flmul@grs+2)^0,f,c
  3470   001AEE  2220               	addwfc	(___flmul@grs+3)^0,f,c
  3471   001AF0  5028               	movf	(___flmul@temp+1)^0,w,c
  3472   001AF2  2623               	addwf	___flmul@prod^0,f,c
  3473   001AF4  0E00               	movlw	0
  3474   001AF6  2224               	addwfc	(___flmul@prod+1)^0,f,c
  3475   001AF8  2225               	addwfc	(___flmul@prod+2)^0,f,c
  3476   001AFA  2226               	addwfc	(___flmul@prod+3)^0,f,c
  3477   001AFC  5014               	movf	___flmul@a^0,w,c
  3478   001AFE  0212               	mulwf	(___flmul@b+2)^0,c
  3479   001B00  CFF3 F027          	movff	prodl,___flmul@temp
  3480   001B04  CFF4 F028          	movff	prodh,___flmul@temp+1
  3481   001B08  5027               	movf	___flmul@temp^0,w,c
  3482   001B0A  261D               	addwf	___flmul@grs^0,f,c
  3483   001B0C  0E00               	movlw	0
  3484   001B0E  221E               	addwfc	(___flmul@grs+1)^0,f,c
  3485   001B10  221F               	addwfc	(___flmul@grs+2)^0,f,c
  3486   001B12  2220               	addwfc	(___flmul@grs+3)^0,f,c
  3487   001B14  5028               	movf	(___flmul@temp+1)^0,w,c
  3488   001B16  2623               	addwf	___flmul@prod^0,f,c
  3489   001B18  0E00               	movlw	0
  3490   001B1A  2224               	addwfc	(___flmul@prod+1)^0,f,c
  3491   001B1C  2225               	addwfc	(___flmul@prod+2)^0,f,c
  3492   001B1E  2226               	addwfc	(___flmul@prod+3)^0,f,c
  3493   001B20  C01F  F020         	movff	___flmul@grs+2,___flmul@grs+3
  3494   001B24  C01E  F01F         	movff	___flmul@grs+1,___flmul@grs+2
  3495   001B28  C01D  F01E         	movff	___flmul@grs,___flmul@grs+1
  3496   001B2C  6A1D               	clrf	___flmul@grs^0,c
  3497   001B2E  5014               	movf	___flmul@a^0,w,c
  3498   001B30  0211               	mulwf	(___flmul@b+1)^0,c
  3499   001B32  CFF3 F027          	movff	prodl,___flmul@temp
  3500   001B36  CFF4 F028          	movff	prodh,___flmul@temp+1
  3501   001B3A  5027               	movf	___flmul@temp^0,w,c
  3502   001B3C  261D               	addwf	___flmul@grs^0,f,c
  3503   001B3E  5028               	movf	(___flmul@temp+1)^0,w,c
  3504   001B40  221E               	addwfc	(___flmul@grs+1)^0,f,c
  3505   001B42  0E00               	movlw	0
  3506   001B44  221F               	addwfc	(___flmul@grs+2)^0,f,c
  3507   001B46  0E00               	movlw	0
  3508   001B48  2220               	addwfc	(___flmul@grs+3)^0,f,c
  3509   001B4A  5015               	movf	(___flmul@a+1)^0,w,c
  3510   001B4C  0210               	mulwf	___flmul@b^0,c
  3511   001B4E  CFF3 F027          	movff	prodl,___flmul@temp
  3512   001B52  CFF4 F028          	movff	prodh,___flmul@temp+1
  3513   001B56  5027               	movf	___flmul@temp^0,w,c
  3514   001B58  261D               	addwf	___flmul@grs^0,f,c
  3515   001B5A  5028               	movf	(___flmul@temp+1)^0,w,c
  3516   001B5C  221E               	addwfc	(___flmul@grs+1)^0,f,c
  3517   001B5E  0E00               	movlw	0
  3518   001B60  221F               	addwfc	(___flmul@grs+2)^0,f,c
  3519   001B62  0E00               	movlw	0
  3520   001B64  2220               	addwfc	(___flmul@grs+3)^0,f,c
  3521   001B66  C01F  F020         	movff	___flmul@grs+2,___flmul@grs+3
  3522   001B6A  C01E  F01F         	movff	___flmul@grs+1,___flmul@grs+2
  3523   001B6E  C01D  F01E         	movff	___flmul@grs,___flmul@grs+1
  3524   001B72  6A1D               	clrf	___flmul@grs^0,c
  3525   001B74  5014               	movf	___flmul@a^0,w,c
  3526   001B76  0210               	mulwf	___flmul@b^0,c
  3527   001B78  CFF3 F027          	movff	prodl,___flmul@temp
  3528   001B7C  CFF4 F028          	movff	prodh,___flmul@temp+1
  3529   001B80  5027               	movf	___flmul@temp^0,w,c
  3530   001B82  261D               	addwf	___flmul@grs^0,f,c
  3531   001B84  5028               	movf	(___flmul@temp+1)^0,w,c
  3532   001B86  221E               	addwfc	(___flmul@grs+1)^0,f,c
  3533   001B88  0E00               	movlw	0
  3534   001B8A  221F               	addwfc	(___flmul@grs+2)^0,f,c
  3535   001B8C  0E00               	movlw	0
  3536   001B8E  2220               	addwfc	(___flmul@grs+3)^0,f,c
  3537   001B90  5016               	movf	(___flmul@a+2)^0,w,c
  3538   001B92  0211               	mulwf	(___flmul@b+1)^0,c
  3539   001B94  CFF3 F027          	movff	prodl,___flmul@temp
  3540   001B98  CFF4 F028          	movff	prodh,___flmul@temp+1
  3541   001B9C  5027               	movf	___flmul@temp^0,w,c
  3542   001B9E  2623               	addwf	___flmul@prod^0,f,c
  3543   001BA0  5028               	movf	(___flmul@temp+1)^0,w,c
  3544   001BA2  2224               	addwfc	(___flmul@prod+1)^0,f,c
  3545   001BA4  0E00               	movlw	0
  3546   001BA6  2225               	addwfc	(___flmul@prod+2)^0,f,c
  3547   001BA8  0E00               	movlw	0
  3548   001BAA  2226               	addwfc	(___flmul@prod+3)^0,f,c
  3549   001BAC  5015               	movf	(___flmul@a+1)^0,w,c
  3550   001BAE  0212               	mulwf	(___flmul@b+2)^0,c
  3551   001BB0  CFF3 F027          	movff	prodl,___flmul@temp
  3552   001BB4  CFF4 F028          	movff	prodh,___flmul@temp+1
  3553   001BB8  5027               	movf	___flmul@temp^0,w,c
  3554   001BBA  2623               	addwf	___flmul@prod^0,f,c
  3555   001BBC  5028               	movf	(___flmul@temp+1)^0,w,c
  3556   001BBE  2224               	addwfc	(___flmul@prod+1)^0,f,c
  3557   001BC0  0E00               	movlw	0
  3558   001BC2  2225               	addwfc	(___flmul@prod+2)^0,f,c
  3559   001BC4  0E00               	movlw	0
  3560   001BC6  2226               	addwfc	(___flmul@prod+3)^0,f,c
  3561   001BC8  5016               	movf	(___flmul@a+2)^0,w,c
  3562   001BCA  0212               	mulwf	(___flmul@b+2)^0,c
  3563   001BCC  CFF3 F027          	movff	prodl,___flmul@temp
  3564   001BD0  CFF4 F028          	movff	prodh,___flmul@temp+1
  3565   001BD4  5027               	movf	___flmul@temp^0,w,c
  3566   001BD6  6E18               	movwf	??___flmul^0,c
  3567   001BD8  5028               	movf	(___flmul@temp+1)^0,w,c
  3568   001BDA  6E19               	movwf	(??___flmul+1)^0,c
  3569   001BDC  6A1A               	clrf	(??___flmul+2)^0,c
  3570   001BDE  6A1B               	clrf	(??___flmul+3)^0,c
  3571   001BE0  C01A  F01B         	movff	??___flmul+2,??___flmul+3
  3572   001BE4  C019  F01A         	movff	??___flmul+1,??___flmul+2
  3573   001BE8  C018  F019         	movff	??___flmul,??___flmul+1
  3574   001BEC  6A18               	clrf	??___flmul^0,c
  3575   001BEE  5018               	movf	??___flmul^0,w,c
  3576   001BF0  2623               	addwf	___flmul@prod^0,f,c
  3577   001BF2  5019               	movf	(??___flmul+1)^0,w,c
  3578   001BF4  2224               	addwfc	(___flmul@prod+1)^0,f,c
  3579   001BF6  501A               	movf	(??___flmul+2)^0,w,c
  3580   001BF8  2225               	addwfc	(___flmul@prod+2)^0,f,c
  3581   001BFA  501B               	movf	(??___flmul+3)^0,w,c
  3582   001BFC  2226               	addwfc	(___flmul@prod+3)^0,f,c
  3583   001BFE  C01D  F018         	movff	___flmul@grs,??___flmul
  3584   001C02  C01E  F019         	movff	___flmul@grs+1,??___flmul+1
  3585   001C06  C01F  F01A         	movff	___flmul@grs+2,??___flmul+2
  3586   001C0A  C020  F01B         	movff	___flmul@grs+3,??___flmul+3
  3587   001C0E  0E19               	movlw	25
  3588   001C10  EF0F  F00E         	goto	u3900
  3589   001C14                     u3905:
  3590   001C14  90D8               	bcf	status,0,c
  3591   001C16  321B               	rrcf	(??___flmul+3)^0,f,c
  3592   001C18  321A               	rrcf	(??___flmul+2)^0,f,c
  3593   001C1A  3219               	rrcf	(??___flmul+1)^0,f,c
  3594   001C1C  3218               	rrcf	??___flmul^0,f,c
  3595   001C1E                     u3900:
  3596   001C1E  2EE8               	decfsz	wreg,f,c
  3597   001C20  EF0A  F00E         	goto	u3905
  3598   001C24  5018               	movf	??___flmul^0,w,c
  3599   001C26  2623               	addwf	___flmul@prod^0,f,c
  3600   001C28  5019               	movf	(??___flmul+1)^0,w,c
  3601   001C2A  2224               	addwfc	(___flmul@prod+1)^0,f,c
  3602   001C2C  501A               	movf	(??___flmul+2)^0,w,c
  3603   001C2E  2225               	addwfc	(___flmul@prod+2)^0,f,c
  3604   001C30  501B               	movf	(??___flmul+3)^0,w,c
  3605   001C32  2226               	addwfc	(___flmul@prod+3)^0,f,c
  3606   001C34  C01F  F020         	movff	___flmul@grs+2,___flmul@grs+3
  3607   001C38  C01E  F01F         	movff	___flmul@grs+1,___flmul@grs+2
  3608   001C3C  C01D  F01E         	movff	___flmul@grs,___flmul@grs+1
  3609   001C40  6A1D               	clrf	___flmul@grs^0,c
  3610   001C42  5021               	movf	___flmul@aexp^0,w,c
  3611   001C44  C022  F018         	movff	___flmul@bexp,??___flmul
  3612   001C48  6A19               	clrf	(??___flmul+1)^0,c
  3613   001C4A  2618               	addwf	??___flmul^0,f,c
  3614   001C4C  0E00               	movlw	0
  3615   001C4E  2219               	addwfc	(??___flmul+1)^0,f,c
  3616   001C50  0E82               	movlw	130
  3617   001C52  2418               	addwf	??___flmul^0,w,c
  3618   001C54  6E27               	movwf	___flmul@temp^0,c
  3619   001C56  0EFF               	movlw	255
  3620   001C58  2019               	addwfc	(??___flmul+1)^0,w,c
  3621   001C5A  6E28               	movwf	(___flmul@temp+1)^0,c
  3622   001C5C  EF45  F00E         	goto	l4277
  3623   001C60                     l4271:
  3624   001C60  90D8               	bcf	status,0,c
  3625   001C62  3623               	rlcf	___flmul@prod^0,f,c
  3626   001C64  3624               	rlcf	(___flmul@prod+1)^0,f,c
  3627   001C66  3625               	rlcf	(___flmul@prod+2)^0,f,c
  3628   001C68  3626               	rlcf	(___flmul@prod+3)^0,f,c
  3629   001C6A  AE20               	btfss	(___flmul@grs+3)^0,7,c
  3630   001C6C  EF3A  F00E         	goto	u3911
  3631   001C70  EF3C  F00E         	goto	u3910
  3632   001C74                     u3911:
  3633   001C74  EF3D  F00E         	goto	l1627
  3634   001C78                     u3910:
  3635   001C78  8023               	bsf	___flmul@prod^0,0,c
  3636   001C7A                     l1627:
  3637   001C7A  90D8               	bcf	status,0,c
  3638   001C7C  361D               	rlcf	___flmul@grs^0,f,c
  3639   001C7E  361E               	rlcf	(___flmul@grs+1)^0,f,c
  3640   001C80  361F               	rlcf	(___flmul@grs+2)^0,f,c
  3641   001C82  3620               	rlcf	(___flmul@grs+3)^0,f,c
  3642   001C84  0627               	decf	___flmul@temp^0,f,c
  3643   001C86  A0D8               	btfss	status,0,c
  3644   001C88  0628               	decf	(___flmul@temp+1)^0,f,c
  3645   001C8A                     l4277:
  3646   001C8A  AE25               	btfss	(___flmul@prod+2)^0,7,c
  3647   001C8C  EF4A  F00E         	goto	u3921
  3648   001C90  EF4C  F00E         	goto	u3920
  3649   001C94                     u3921:
  3650   001C94  EF30  F00E         	goto	l4271
  3651   001C98                     u3920:
  3652   001C98  0E00               	movlw	0
  3653   001C9A  6E21               	movwf	___flmul@aexp^0,c
  3654   001C9C  AE20               	btfss	(___flmul@grs+3)^0,7,c
  3655   001C9E  EF53  F00E         	goto	u3931
  3656   001CA2  EF55  F00E         	goto	u3930
  3657   001CA6                     u3931:
  3658   001CA6  EF79  F00E         	goto	l1629
  3659   001CAA                     u3930:
  3660   001CAA  0EFF               	movlw	255
  3661   001CAC  141D               	andwf	___flmul@grs^0,w,c
  3662   001CAE  6E18               	movwf	??___flmul^0,c
  3663   001CB0  0EFF               	movlw	255
  3664   001CB2  141E               	andwf	(___flmul@grs+1)^0,w,c
  3665   001CB4  6E19               	movwf	(??___flmul+1)^0,c
  3666   001CB6  0EFF               	movlw	255
  3667   001CB8  141F               	andwf	(___flmul@grs+2)^0,w,c
  3668   001CBA  6E1A               	movwf	(??___flmul+2)^0,c
  3669   001CBC  0E7F               	movlw	127
  3670   001CBE  1420               	andwf	(___flmul@grs+3)^0,w,c
  3671   001CC0  6E1B               	movwf	(??___flmul+3)^0,c
  3672   001CC2  5018               	movf	??___flmul^0,w,c
  3673   001CC4  1019               	iorwf	(??___flmul+1)^0,w,c
  3674   001CC6  101A               	iorwf	(??___flmul+2)^0,w,c
  3675   001CC8  101B               	iorwf	(??___flmul+3)^0,w,c
  3676   001CCA  B4D8               	btfsc	status,2,c
  3677   001CCC  EF6A  F00E         	goto	u3941
  3678   001CD0  EF6C  F00E         	goto	u3940
  3679   001CD4                     u3941:
  3680   001CD4  EF70  F00E         	goto	l1630
  3681   001CD8                     u3940:
  3682   001CD8                     l4285:
  3683   001CD8  0E01               	movlw	1
  3684   001CDA  6E21               	movwf	___flmul@aexp^0,c
  3685   001CDC  EF79  F00E         	goto	l1629
  3686   001CE0                     l1630:
  3687   001CE0  A023               	btfss	___flmul@prod^0,0,c
  3688   001CE2  EF75  F00E         	goto	u3951
  3689   001CE6  EF77  F00E         	goto	u3950
  3690   001CEA                     u3951:
  3691   001CEA  EF79  F00E         	goto	l1629
  3692   001CEE                     u3950:
  3693   001CEE  EF6C  F00E         	goto	l4285
  3694   001CF2                     l1629:
  3695   001CF2  5021               	movf	___flmul@aexp^0,w,c
  3696   001CF4  B4D8               	btfsc	status,2,c
  3697   001CF6  EF7F  F00E         	goto	u3961
  3698   001CFA  EF81  F00E         	goto	u3960
  3699   001CFE                     u3961:
  3700   001CFE  EFA5  F00E         	goto	l4297
  3701   001D02                     u3960:
  3702   001D02  0E01               	movlw	1
  3703   001D04  2623               	addwf	___flmul@prod^0,f,c
  3704   001D06  0E00               	movlw	0
  3705   001D08  2224               	addwfc	(___flmul@prod+1)^0,f,c
  3706   001D0A  2225               	addwfc	(___flmul@prod+2)^0,f,c
  3707   001D0C  2226               	addwfc	(___flmul@prod+3)^0,f,c
  3708   001D0E  A026               	btfss	(___flmul@prod+3)^0,0,c
  3709   001D10  EF8C  F00E         	goto	u3971
  3710   001D14  EF8E  F00E         	goto	u3970
  3711   001D18                     u3971:
  3712   001D18  EFA5  F00E         	goto	l4297
  3713   001D1C                     u3970:
  3714   001D1C  C023  F018         	movff	___flmul@prod,??___flmul
  3715   001D20  C024  F019         	movff	___flmul@prod+1,??___flmul+1
  3716   001D24  C025  F01A         	movff	___flmul@prod+2,??___flmul+2
  3717   001D28  C026  F01B         	movff	___flmul@prod+3,??___flmul+3
  3718   001D2C  341B               	rlcf	(??___flmul+3)^0,w,c
  3719   001D2E  321B               	rrcf	(??___flmul+3)^0,f,c
  3720   001D30  321A               	rrcf	(??___flmul+2)^0,f,c
  3721   001D32  3219               	rrcf	(??___flmul+1)^0,f,c
  3722   001D34  3218               	rrcf	??___flmul^0,f,c
  3723   001D36  C018  F023         	movff	??___flmul,___flmul@prod
  3724   001D3A  C019  F024         	movff	??___flmul+1,___flmul@prod+1
  3725   001D3E  C01A  F025         	movff	??___flmul+2,___flmul@prod+2
  3726   001D42  C01B  F026         	movff	??___flmul+3,___flmul@prod+3
  3727   001D46  4A27               	infsnz	___flmul@temp^0,f,c
  3728   001D48  2A28               	incf	(___flmul@temp+1)^0,f,c
  3729   001D4A                     l4297:
  3730   001D4A  BE28               	btfsc	(___flmul@temp+1)^0,7,c
  3731   001D4C  EFB0  F00E         	goto	u3981
  3732   001D50  5028               	movf	(___flmul@temp+1)^0,w,c
  3733   001D52  E108               	bnz	u3980
  3734   001D54  2827               	incf	___flmul@temp^0,w,c
  3735   001D56  A0D8               	btfss	status,0,c
  3736   001D58  EFB0  F00E         	goto	u3981
  3737   001D5C  EFB2  F00E         	goto	u3980
  3738   001D60                     u3981:
  3739   001D60  EFBC  F00E         	goto	l4301
  3740   001D64                     u3980:
  3741   001D64  0E00               	movlw	0
  3742   001D66  6E23               	movwf	___flmul@prod^0,c
  3743   001D68  0E00               	movlw	0
  3744   001D6A  6E24               	movwf	(___flmul@prod+1)^0,c
  3745   001D6C  0E80               	movlw	128
  3746   001D6E  6E25               	movwf	(___flmul@prod+2)^0,c
  3747   001D70  0E7F               	movlw	127
  3748   001D72  6E26               	movwf	(___flmul@prod+3)^0,c
  3749   001D74  EFEA  F00E         	goto	l4313
  3750   001D78                     l4301:
  3751   001D78  BE28               	btfsc	(___flmul@temp+1)^0,7,c
  3752   001D7A  EFC9  F00E         	goto	u3990
  3753   001D7E  5028               	movf	(___flmul@temp+1)^0,w,c
  3754   001D80  E106               	bnz	u3991
  3755   001D82  0427               	decf	___flmul@temp^0,w,c
  3756   001D84  B0D8               	btfsc	status,0,c
  3757   001D86  EFC7  F00E         	goto	u3991
  3758   001D8A  EFC9  F00E         	goto	u3990
  3759   001D8E                     u3991:
  3760   001D8E  EFD5  F00E         	goto	l1637
  3761   001D92                     u3990:
  3762   001D92  0E00               	movlw	0
  3763   001D94  6E23               	movwf	___flmul@prod^0,c
  3764   001D96  0E00               	movlw	0
  3765   001D98  6E24               	movwf	(___flmul@prod+1)^0,c
  3766   001D9A  0E00               	movlw	0
  3767   001D9C  6E25               	movwf	(___flmul@prod+2)^0,c
  3768   001D9E  0E00               	movlw	0
  3769   001DA0  6E26               	movwf	(___flmul@prod+3)^0,c
  3770   001DA2  0E00               	movlw	0
  3771   001DA4  6E1C               	movwf	___flmul@sign^0,c
  3772   001DA6  EFEA  F00E         	goto	l4313
  3773   001DAA                     l1637:
  3774   001DAA  C027  F022         	movff	___flmul@temp,___flmul@bexp
  3775   001DAE  0EFF               	movlw	255
  3776   001DB0  1623               	andwf	___flmul@prod^0,f,c
  3777   001DB2  0EFF               	movlw	255
  3778   001DB4  1624               	andwf	(___flmul@prod+1)^0,f,c
  3779   001DB6  0E7F               	movlw	127
  3780   001DB8  1625               	andwf	(___flmul@prod+2)^0,f,c
  3781   001DBA  0E00               	movlw	0
  3782   001DBC  1626               	andwf	(___flmul@prod+3)^0,f,c
  3783   001DBE  A022               	btfss	___flmul@bexp^0,0,c
  3784   001DC0  EFE4  F00E         	goto	u4001
  3785   001DC4  EFE6  F00E         	goto	u4000
  3786   001DC8                     u4001:
  3787   001DC8  EFE7  F00E         	goto	l4311
  3788   001DCC                     u4000:
  3789   001DCC  8E25               	bsf	(___flmul@prod+2)^0,7,c
  3790   001DCE                     l4311:
  3791   001DCE  90D8               	bcf	status,0,c
  3792   001DD0  3022               	rrcf	___flmul@bexp^0,w,c
  3793   001DD2  6E26               	movwf	(___flmul@prod+3)^0,c
  3794   001DD4                     l4313:
  3795   001DD4  501C               	movf	___flmul@sign^0,w,c
  3796   001DD6  1226               	iorwf	(___flmul@prod+3)^0,f,c
  3797   001DD8  C023  F010         	movff	___flmul@prod,?___flmul
  3798   001DDC  C024  F011         	movff	___flmul@prod+1,?___flmul+1
  3799   001DE0  C025  F012         	movff	___flmul@prod+2,?___flmul+2
  3800   001DE4  C026  F013         	movff	___flmul@prod+3,?___flmul+3
  3801   001DE8                     l1624:
  3802   001DE8  0012               	return		;funcret
  3803   001DEA                     __end_of___flmul:
  3804                           	callstack 0
  3805                           
  3806 ;; *************** function ___fldiv *****************
  3807 ;; Defined at:
  3808 ;;		line 11 in file "C:\Program Files\Microchip\xc8\v2.46\pic\sources\c99\common\sprcdiv.c"
  3809 ;; Parameters:    Size  Location     Type
  3810 ;;  b               4   40[COMRAM] unsigned char 
  3811 ;;  a               4   44[COMRAM] unsigned char 
  3812 ;; Auto vars:     Size  Location     Type
  3813 ;;  grs             4   59[COMRAM] unsigned long 
  3814 ;;  rem             4   52[COMRAM] unsigned long 
  3815 ;;  new_exp         2   57[COMRAM] short 
  3816 ;;  aexp            1   64[COMRAM] unsigned char 
  3817 ;;  bexp            1   63[COMRAM] unsigned char 
  3818 ;;  sign            1   56[COMRAM] unsigned char 
  3819 ;; Return value:  Size  Location     Type
  3820 ;;                  4   40[COMRAM] unsigned char 
  3821 ;; Registers used:
  3822 ;;		wreg, status,2, status,0
  3823 ;; Tracked objects:
  3824 ;;		On entry : 0/0
  3825 ;;		On exit  : 0/0
  3826 ;;		Unchanged: 0/0
  3827 ;; Data sizes:     COMRAM   BANK0   BANK1   BANK2   BANK3   BANK4   BANK5   BANK6   BANK7   BANK8   BANK9  BANK10  BANK1
      +1  BANK12  BANK13  BANK14  BANK15
  3828 ;;      Params:         8       0       0       0       0       0       0       0       0       0       0       0       
      +0       0       0       0       0
  3829 ;;      Locals:        13       0       0       0       0       0       0       0       0       0       0       0       
      +0       0       0       0       0
  3830 ;;      Temps:          4       0       0       0       0       0       0       0       0       0       0       0       
      +0       0       0       0       0
  3831 ;;      Totals:        25       0       0       0       0       0       0       0       0       0       0       0       
      +0       0       0       0       0
  3832 ;;Total ram usage:       25 bytes
  3833 ;; Hardware stack levels used: 1
  3834 ;; Hardware stack levels required when called: 2
  3835 ;; This function calls:
  3836 ;;		Nothing
  3837 ;; This function is called by:
  3838 ;;		_CCP_PWM_Mode_Config
  3839 ;;		_EUSART_Baud_Rate_Calculation
  3840 ;;		_CCP_PWM_Set_Duty
  3841 ;; This function uses a non-reentrant model
  3842 ;;
  3843                           
  3844                           	psect	text16
  3845   001DEA                     __ptext16:
  3846                           	callstack 0
  3847   001DEA                     ___fldiv:
  3848                           	callstack 24
  3849   001DEA  502C               	movf	(___fldiv@b+3)^0,w,c
  3850   001DEC  0B80               	andlw	128
  3851   001DEE  6E39               	movwf	___fldiv@sign^0,c
  3852   001DF0  502C               	movf	(___fldiv@b+3)^0,w,c
  3853   001DF2  242C               	addwf	(___fldiv@b+3)^0,w,c
  3854   001DF4  6E40               	movwf	___fldiv@bexp^0,c
  3855   001DF6  AE2B               	btfss	(___fldiv@b+2)^0,7,c
  3856   001DF8  EF00  F00F         	goto	u3591
  3857   001DFC  EF02  F00F         	goto	u3590
  3858   001E00                     u3591:
  3859   001E00  EF03  F00F         	goto	l4057
  3860   001E04                     u3590:
  3861   001E04  8040               	bsf	___fldiv@bexp^0,0,c
  3862   001E06                     l4057:
  3863   001E06  5040               	movf	___fldiv@bexp^0,w,c
  3864   001E08  B4D8               	btfsc	status,2,c
  3865   001E0A  EF09  F00F         	goto	u3601
  3866   001E0E  EF0B  F00F         	goto	u3600
  3867   001E12                     u3601:
  3868   001E12  EF20  F00F         	goto	l4067
  3869   001E16                     u3600:
  3870   001E16  2840               	incf	___fldiv@bexp^0,w,c
  3871   001E18  A4D8               	btfss	status,2,c
  3872   001E1A  EF11  F00F         	goto	u3611
  3873   001E1E  EF13  F00F         	goto	u3610
  3874   001E22                     u3611:
  3875   001E22  EF1B  F00F         	goto	l4063
  3876   001E26                     u3610:
  3877   001E26  0E00               	movlw	0
  3878   001E28  6E29               	movwf	___fldiv@b^0,c
  3879   001E2A  0E00               	movlw	0
  3880   001E2C  6E2A               	movwf	(___fldiv@b+1)^0,c
  3881   001E2E  0E00               	movlw	0
  3882   001E30  6E2B               	movwf	(___fldiv@b+2)^0,c
  3883   001E32  0E00               	movlw	0
  3884   001E34  6E2C               	movwf	(___fldiv@b+3)^0,c
  3885   001E36                     l4063:
  3886   001E36  8E2B               	bsf	(___fldiv@b+2)^0,7,c
  3887   001E38  0E00               	movlw	0
  3888   001E3A  6E2C               	movwf	(___fldiv@b+3)^0,c
  3889   001E3C  EF28  F00F         	goto	l4069
  3890   001E40                     l4067:
  3891   001E40  0E00               	movlw	0
  3892   001E42  6E29               	movwf	___fldiv@b^0,c
  3893   001E44  0E00               	movlw	0
  3894   001E46  6E2A               	movwf	(___fldiv@b+1)^0,c
  3895   001E48  0E00               	movlw	0
  3896   001E4A  6E2B               	movwf	(___fldiv@b+2)^0,c
  3897   001E4C  0E00               	movlw	0
  3898   001E4E  6E2C               	movwf	(___fldiv@b+3)^0,c
  3899   001E50                     l4069:
  3900   001E50  5030               	movf	(___fldiv@a+3)^0,w,c
  3901   001E52  0B80               	andlw	128
  3902   001E54  1A39               	xorwf	___fldiv@sign^0,f,c
  3903   001E56  5030               	movf	(___fldiv@a+3)^0,w,c
  3904   001E58  2430               	addwf	(___fldiv@a+3)^0,w,c
  3905   001E5A  6E41               	movwf	___fldiv@aexp^0,c
  3906   001E5C  AE2F               	btfss	(___fldiv@a+2)^0,7,c
  3907   001E5E  EF33  F00F         	goto	u3621
  3908   001E62  EF35  F00F         	goto	u3620
  3909   001E66                     u3621:
  3910   001E66  EF36  F00F         	goto	l4077
  3911   001E6A                     u3620:
  3912   001E6A  8041               	bsf	___fldiv@aexp^0,0,c
  3913   001E6C                     l4077:
  3914   001E6C  5041               	movf	___fldiv@aexp^0,w,c
  3915   001E6E  B4D8               	btfsc	status,2,c
  3916   001E70  EF3C  F00F         	goto	u3631
  3917   001E74  EF3E  F00F         	goto	u3630
  3918   001E78                     u3631:
  3919   001E78  EF53  F00F         	goto	l4087
  3920   001E7C                     u3630:
  3921   001E7C  2841               	incf	___fldiv@aexp^0,w,c
  3922   001E7E  A4D8               	btfss	status,2,c
  3923   001E80  EF44  F00F         	goto	u3641
  3924   001E84  EF46  F00F         	goto	u3640
  3925   001E88                     u3641:
  3926   001E88  EF4E  F00F         	goto	l4083
  3927   001E8C                     u3640:
  3928   001E8C  0E00               	movlw	0
  3929   001E8E  6E2D               	movwf	___fldiv@a^0,c
  3930   001E90  0E00               	movlw	0
  3931   001E92  6E2E               	movwf	(___fldiv@a+1)^0,c
  3932   001E94  0E00               	movlw	0
  3933   001E96  6E2F               	movwf	(___fldiv@a+2)^0,c
  3934   001E98  0E00               	movlw	0
  3935   001E9A  6E30               	movwf	(___fldiv@a+3)^0,c
  3936   001E9C                     l4083:
  3937   001E9C  8E2F               	bsf	(___fldiv@a+2)^0,7,c
  3938   001E9E  0E00               	movlw	0
  3939   001EA0  6E30               	movwf	(___fldiv@a+3)^0,c
  3940   001EA2  EF5B  F00F         	goto	l4089
  3941   001EA6                     l4087:
  3942   001EA6  0E00               	movlw	0
  3943   001EA8  6E2D               	movwf	___fldiv@a^0,c
  3944   001EAA  0E00               	movlw	0
  3945   001EAC  6E2E               	movwf	(___fldiv@a+1)^0,c
  3946   001EAE  0E00               	movlw	0
  3947   001EB0  6E2F               	movwf	(___fldiv@a+2)^0,c
  3948   001EB2  0E00               	movlw	0
  3949   001EB4  6E30               	movwf	(___fldiv@a+3)^0,c
  3950   001EB6                     l4089:
  3951   001EB6  502D               	movf	___fldiv@a^0,w,c
  3952   001EB8  102E               	iorwf	(___fldiv@a+1)^0,w,c
  3953   001EBA  102F               	iorwf	(___fldiv@a+2)^0,w,c
  3954   001EBC  1030               	iorwf	(___fldiv@a+3)^0,w,c
  3955   001EBE  A4D8               	btfss	status,2,c
  3956   001EC0  EF64  F00F         	goto	u3651
  3957   001EC4  EF66  F00F         	goto	u3650
  3958   001EC8                     u3651:
  3959   001EC8  EF7E  F00F         	goto	l4101
  3960   001ECC                     u3650:
  3961   001ECC  0E00               	movlw	0
  3962   001ECE  6E29               	movwf	___fldiv@b^0,c
  3963   001ED0  0E00               	movlw	0
  3964   001ED2  6E2A               	movwf	(___fldiv@b+1)^0,c
  3965   001ED4  0E00               	movlw	0
  3966   001ED6  6E2B               	movwf	(___fldiv@b+2)^0,c
  3967   001ED8  0E00               	movlw	0
  3968   001EDA  6E2C               	movwf	(___fldiv@b+3)^0,c
  3969   001EDC  0E80               	movlw	128
  3970   001EDE  122B               	iorwf	(___fldiv@b+2)^0,f,c
  3971   001EE0  0E7F               	movlw	127
  3972   001EE2  122C               	iorwf	(___fldiv@b+3)^0,f,c
  3973   001EE4                     l4095:
  3974   001EE4  5039               	movf	___fldiv@sign^0,w,c
  3975   001EE6  122C               	iorwf	(___fldiv@b+3)^0,f,c
  3976   001EE8  C029  F029         	movff	___fldiv@b,?___fldiv
  3977   001EEC  C02A  F02A         	movff	___fldiv@b+1,?___fldiv+1
  3978   001EF0  C02B  F02B         	movff	___fldiv@b+2,?___fldiv+2
  3979   001EF4  C02C  F02C         	movff	___fldiv@b+3,?___fldiv+3
  3980   001EF8  EFC1  F010         	goto	l1588
  3981   001EFC                     l4101:
  3982   001EFC  5040               	movf	___fldiv@bexp^0,w,c
  3983   001EFE  A4D8               	btfss	status,2,c
  3984   001F00  EF84  F00F         	goto	u3661
  3985   001F04  EF86  F00F         	goto	u3660
  3986   001F08                     u3661:
  3987   001F08  EF90  F00F         	goto	l4109
  3988   001F0C                     u3660:
  3989   001F0C  0E00               	movlw	0
  3990   001F0E  6E29               	movwf	?___fldiv^0,c
  3991   001F10  0E00               	movlw	0
  3992   001F12  6E2A               	movwf	(?___fldiv+1)^0,c
  3993   001F14  0E00               	movlw	0
  3994   001F16  6E2B               	movwf	(?___fldiv+2)^0,c
  3995   001F18  0E00               	movlw	0
  3996   001F1A  6E2C               	movwf	(?___fldiv+3)^0,c
  3997   001F1C  EFC1  F010         	goto	l1588
  3998   001F20                     l4109:
  3999   001F20  5041               	movf	___fldiv@aexp^0,w,c
  4000   001F22  C040  F031         	movff	___fldiv@bexp,??___fldiv
  4001   001F26  6A32               	clrf	(??___fldiv+1)^0,c
  4002   001F28  5E31               	subwf	??___fldiv^0,f,c
  4003   001F2A  0E00               	movlw	0
  4004   001F2C  5A32               	subwfb	(??___fldiv+1)^0,f,c
  4005   001F2E  0E7F               	movlw	127
  4006   001F30  2431               	addwf	??___fldiv^0,w,c
  4007   001F32  6E3A               	movwf	___fldiv@new_exp^0,c
  4008   001F34  0E00               	movlw	0
  4009   001F36  2032               	addwfc	(??___fldiv+1)^0,w,c
  4010   001F38  6E3B               	movwf	(___fldiv@new_exp+1)^0,c
  4011   001F3A  C029  F035         	movff	___fldiv@b,___fldiv@rem
  4012   001F3E  C02A  F036         	movff	___fldiv@b+1,___fldiv@rem+1
  4013   001F42  C02B  F037         	movff	___fldiv@b+2,___fldiv@rem+2
  4014   001F46  C02C  F038         	movff	___fldiv@b+3,___fldiv@rem+3
  4015   001F4A  0E00               	movlw	0
  4016   001F4C  6E29               	movwf	___fldiv@b^0,c
  4017   001F4E  0E00               	movlw	0
  4018   001F50  6E2A               	movwf	(___fldiv@b+1)^0,c
  4019   001F52  0E00               	movlw	0
  4020   001F54  6E2B               	movwf	(___fldiv@b+2)^0,c
  4021   001F56  0E00               	movlw	0
  4022   001F58  6E2C               	movwf	(___fldiv@b+3)^0,c
  4023   001F5A  0E00               	movlw	0
  4024   001F5C  6E3C               	movwf	___fldiv@grs^0,c
  4025   001F5E  0E00               	movlw	0
  4026   001F60  6E3D               	movwf	(___fldiv@grs+1)^0,c
  4027   001F62  0E00               	movlw	0
  4028   001F64  6E3E               	movwf	(___fldiv@grs+2)^0,c
  4029   001F66  0E00               	movlw	0
  4030   001F68  6E3F               	movwf	(___fldiv@grs+3)^0,c
  4031   001F6A  0E00               	movlw	0
  4032   001F6C  6E41               	movwf	___fldiv@aexp^0,c
  4033   001F6E  EFF1  F00F         	goto	l1590
  4034   001F72                     l4119:
  4035   001F72  5041               	movf	___fldiv@aexp^0,w,c
  4036   001F74  B4D8               	btfsc	status,2,c
  4037   001F76  EFBF  F00F         	goto	u3671
  4038   001F7A  EFC1  F00F         	goto	u3670
  4039   001F7E                     u3671:
  4040   001F7E  EFD8  F00F         	goto	l4127
  4041   001F82                     u3670:
  4042   001F82  90D8               	bcf	status,0,c
  4043   001F84  3635               	rlcf	___fldiv@rem^0,f,c
  4044   001F86  3636               	rlcf	(___fldiv@rem+1)^0,f,c
  4045   001F88  3637               	rlcf	(___fldiv@rem+2)^0,f,c
  4046   001F8A  3638               	rlcf	(___fldiv@rem+3)^0,f,c
  4047   001F8C  90D8               	bcf	status,0,c
  4048   001F8E  3629               	rlcf	___fldiv@b^0,f,c
  4049   001F90  362A               	rlcf	(___fldiv@b+1)^0,f,c
  4050   001F92  362B               	rlcf	(___fldiv@b+2)^0,f,c
  4051   001F94  362C               	rlcf	(___fldiv@b+3)^0,f,c
  4052   001F96  AE3F               	btfss	(___fldiv@grs+3)^0,7,c
  4053   001F98  EFD0  F00F         	goto	u3681
  4054   001F9C  EFD2  F00F         	goto	u3680
  4055   001FA0                     u3681:
  4056   001FA0  EFD3  F00F         	goto	l1593
  4057   001FA4                     u3680:
  4058   001FA4  8029               	bsf	___fldiv@b^0,0,c
  4059   001FA6                     l1593:
  4060   001FA6  90D8               	bcf	status,0,c
  4061   001FA8  363C               	rlcf	___fldiv@grs^0,f,c
  4062   001FAA  363D               	rlcf	(___fldiv@grs+1)^0,f,c
  4063   001FAC  363E               	rlcf	(___fldiv@grs+2)^0,f,c
  4064   001FAE  363F               	rlcf	(___fldiv@grs+3)^0,f,c
  4065   001FB0                     l4127:
  4066   001FB0  502D               	movf	___fldiv@a^0,w,c
  4067   001FB2  5C35               	subwf	___fldiv@rem^0,w,c
  4068   001FB4  502E               	movf	(___fldiv@a+1)^0,w,c
  4069   001FB6  5836               	subwfb	(___fldiv@rem+1)^0,w,c
  4070   001FB8  502F               	movf	(___fldiv@a+2)^0,w,c
  4071   001FBA  5837               	subwfb	(___fldiv@rem+2)^0,w,c
  4072   001FBC  5030               	movf	(___fldiv@a+3)^0,w,c
  4073   001FBE  5838               	subwfb	(___fldiv@rem+3)^0,w,c
  4074   001FC0  A0D8               	btfss	status,0,c
  4075   001FC2  EFE5  F00F         	goto	u3691
  4076   001FC6  EFE7  F00F         	goto	u3690
  4077   001FCA                     u3691:
  4078   001FCA  EFF0  F00F         	goto	l4133
  4079   001FCE                     u3690:
  4080   001FCE  8C3F               	bsf	(___fldiv@grs+3)^0,6,c
  4081   001FD0  502D               	movf	___fldiv@a^0,w,c
  4082   001FD2  5E35               	subwf	___fldiv@rem^0,f,c
  4083   001FD4  502E               	movf	(___fldiv@a+1)^0,w,c
  4084   001FD6  5A36               	subwfb	(___fldiv@rem+1)^0,f,c
  4085   001FD8  502F               	movf	(___fldiv@a+2)^0,w,c
  4086   001FDA  5A37               	subwfb	(___fldiv@rem+2)^0,f,c
  4087   001FDC  5030               	movf	(___fldiv@a+3)^0,w,c
  4088   001FDE  5A38               	subwfb	(___fldiv@rem+3)^0,f,c
  4089   001FE0                     l4133:
  4090   001FE0  2A41               	incf	___fldiv@aexp^0,f,c
  4091   001FE2                     l1590:
  4092   001FE2  0E19               	movlw	25
  4093   001FE4  6441               	cpfsgt	___fldiv@aexp^0,c
  4094   001FE6  EFF7  F00F         	goto	u3701
  4095   001FEA  EFF9  F00F         	goto	u3700
  4096   001FEE                     u3701:
  4097   001FEE  EFB9  F00F         	goto	l4119
  4098   001FF2                     u3700:
  4099   001FF2  5035               	movf	___fldiv@rem^0,w,c
  4100   001FF4  1036               	iorwf	(___fldiv@rem+1)^0,w,c
  4101   001FF6  1037               	iorwf	(___fldiv@rem+2)^0,w,c
  4102   001FF8  1038               	iorwf	(___fldiv@rem+3)^0,w,c
  4103   001FFA  B4D8               	btfsc	status,2,c
  4104   001FFC  EF02  F010         	goto	u3711
  4105   002000  EF04  F010         	goto	u3710
  4106   002004                     u3711:
  4107   002004  EF1C  F010         	goto	l4145
  4108   002008                     u3710:
  4109   002008  803C               	bsf	___fldiv@grs^0,0,c
  4110   00200A  EF1C  F010         	goto	l4145
  4111   00200E                     l4139:
  4112   00200E  90D8               	bcf	status,0,c
  4113   002010  3629               	rlcf	___fldiv@b^0,f,c
  4114   002012  362A               	rlcf	(___fldiv@b+1)^0,f,c
  4115   002014  362B               	rlcf	(___fldiv@b+2)^0,f,c
  4116   002016  362C               	rlcf	(___fldiv@b+3)^0,f,c
  4117   002018  AE3F               	btfss	(___fldiv@grs+3)^0,7,c
  4118   00201A  EF11  F010         	goto	u3721
  4119   00201E  EF13  F010         	goto	u3720
  4120   002022                     u3721:
  4121   002022  EF14  F010         	goto	l1599
  4122   002026                     u3720:
  4123   002026  8029               	bsf	___fldiv@b^0,0,c
  4124   002028                     l1599:
  4125   002028  90D8               	bcf	status,0,c
  4126   00202A  363C               	rlcf	___fldiv@grs^0,f,c
  4127   00202C  363D               	rlcf	(___fldiv@grs+1)^0,f,c
  4128   00202E  363E               	rlcf	(___fldiv@grs+2)^0,f,c
  4129   002030  363F               	rlcf	(___fldiv@grs+3)^0,f,c
  4130   002032  063A               	decf	___fldiv@new_exp^0,f,c
  4131   002034  A0D8               	btfss	status,0,c
  4132   002036  063B               	decf	(___fldiv@new_exp+1)^0,f,c
  4133   002038                     l4145:
  4134   002038  AE2B               	btfss	(___fldiv@b+2)^0,7,c
  4135   00203A  EF21  F010         	goto	u3731
  4136   00203E  EF23  F010         	goto	u3730
  4137   002042                     u3731:
  4138   002042  EF07  F010         	goto	l4139
  4139   002046                     u3730:
  4140   002046  0E00               	movlw	0
  4141   002048  6E41               	movwf	___fldiv@aexp^0,c
  4142   00204A  AE3F               	btfss	(___fldiv@grs+3)^0,7,c
  4143   00204C  EF2A  F010         	goto	u3741
  4144   002050  EF2C  F010         	goto	u3740
  4145   002054                     u3741:
  4146   002054  EF50  F010         	goto	l1601
  4147   002058                     u3740:
  4148   002058  0EFF               	movlw	255
  4149   00205A  143C               	andwf	___fldiv@grs^0,w,c
  4150   00205C  6E31               	movwf	??___fldiv^0,c
  4151   00205E  0EFF               	movlw	255
  4152   002060  143D               	andwf	(___fldiv@grs+1)^0,w,c
  4153   002062  6E32               	movwf	(??___fldiv+1)^0,c
  4154   002064  0EFF               	movlw	255
  4155   002066  143E               	andwf	(___fldiv@grs+2)^0,w,c
  4156   002068  6E33               	movwf	(??___fldiv+2)^0,c
  4157   00206A  0E7F               	movlw	127
  4158   00206C  143F               	andwf	(___fldiv@grs+3)^0,w,c
  4159   00206E  6E34               	movwf	(??___fldiv+3)^0,c
  4160   002070  5031               	movf	??___fldiv^0,w,c
  4161   002072  1032               	iorwf	(??___fldiv+1)^0,w,c
  4162   002074  1033               	iorwf	(??___fldiv+2)^0,w,c
  4163   002076  1034               	iorwf	(??___fldiv+3)^0,w,c
  4164   002078  B4D8               	btfsc	status,2,c
  4165   00207A  EF41  F010         	goto	u3751
  4166   00207E  EF43  F010         	goto	u3750
  4167   002082                     u3751:
  4168   002082  EF47  F010         	goto	l1602
  4169   002086                     u3750:
  4170   002086                     l4153:
  4171   002086  0E01               	movlw	1
  4172   002088  6E41               	movwf	___fldiv@aexp^0,c
  4173   00208A  EF50  F010         	goto	l1601
  4174   00208E                     l1602:
  4175   00208E  A029               	btfss	___fldiv@b^0,0,c
  4176   002090  EF4C  F010         	goto	u3761
  4177   002094  EF4E  F010         	goto	u3760
  4178   002098                     u3761:
  4179   002098  EF50  F010         	goto	l1601
  4180   00209C                     u3760:
  4181   00209C  EF43  F010         	goto	l4153
  4182   0020A0                     l1601:
  4183   0020A0  5041               	movf	___fldiv@aexp^0,w,c
  4184   0020A2  B4D8               	btfsc	status,2,c
  4185   0020A4  EF56  F010         	goto	u3771
  4186   0020A8  EF58  F010         	goto	u3770
  4187   0020AC                     u3771:
  4188   0020AC  EF7C  F010         	goto	l4165
  4189   0020B0                     u3770:
  4190   0020B0  0E01               	movlw	1
  4191   0020B2  2629               	addwf	___fldiv@b^0,f,c
  4192   0020B4  0E00               	movlw	0
  4193   0020B6  222A               	addwfc	(___fldiv@b+1)^0,f,c
  4194   0020B8  222B               	addwfc	(___fldiv@b+2)^0,f,c
  4195   0020BA  222C               	addwfc	(___fldiv@b+3)^0,f,c
  4196   0020BC  A02C               	btfss	(___fldiv@b+3)^0,0,c
  4197   0020BE  EF63  F010         	goto	u3781
  4198   0020C2  EF65  F010         	goto	u3780
  4199   0020C6                     u3781:
  4200   0020C6  EF7C  F010         	goto	l4165
  4201   0020CA                     u3780:
  4202   0020CA  C029  F031         	movff	___fldiv@b,??___fldiv
  4203   0020CE  C02A  F032         	movff	___fldiv@b+1,??___fldiv+1
  4204   0020D2  C02B  F033         	movff	___fldiv@b+2,??___fldiv+2
  4205   0020D6  C02C  F034         	movff	___fldiv@b+3,??___fldiv+3
  4206   0020DA  3434               	rlcf	(??___fldiv+3)^0,w,c
  4207   0020DC  3234               	rrcf	(??___fldiv+3)^0,f,c
  4208   0020DE  3233               	rrcf	(??___fldiv+2)^0,f,c
  4209   0020E0  3232               	rrcf	(??___fldiv+1)^0,f,c
  4210   0020E2  3231               	rrcf	??___fldiv^0,f,c
  4211   0020E4  C031  F029         	movff	??___fldiv,___fldiv@b
  4212   0020E8  C032  F02A         	movff	??___fldiv+1,___fldiv@b+1
  4213   0020EC  C033  F02B         	movff	??___fldiv+2,___fldiv@b+2
  4214   0020F0  C034  F02C         	movff	??___fldiv+3,___fldiv@b+3
  4215   0020F4  4A3A               	infsnz	___fldiv@new_exp^0,f,c
  4216   0020F6  2A3B               	incf	(___fldiv@new_exp+1)^0,f,c
  4217   0020F8                     l4165:
  4218   0020F8  BE3B               	btfsc	(___fldiv@new_exp+1)^0,7,c
  4219   0020FA  EF87  F010         	goto	u3791
  4220   0020FE  503B               	movf	(___fldiv@new_exp+1)^0,w,c
  4221   002100  E108               	bnz	u3790
  4222   002102  283A               	incf	___fldiv@new_exp^0,w,c
  4223   002104  A0D8               	btfss	status,0,c
  4224   002106  EF87  F010         	goto	u3791
  4225   00210A  EF89  F010         	goto	u3790
  4226   00210E                     u3791:
  4227   00210E  EF94  F010         	goto	l4169
  4228   002112                     u3790:
  4229   002112  0E00               	movlw	0
  4230   002114  6E3B               	movwf	(___fldiv@new_exp+1)^0,c
  4231   002116  683A               	setf	___fldiv@new_exp^0,c
  4232   002118  0E00               	movlw	0
  4233   00211A  6E29               	movwf	___fldiv@b^0,c
  4234   00211C  0E00               	movlw	0
  4235   00211E  6E2A               	movwf	(___fldiv@b+1)^0,c
  4236   002120  0E00               	movlw	0
  4237   002122  6E2B               	movwf	(___fldiv@b+2)^0,c
  4238   002124  0E00               	movlw	0
  4239   002126  6E2C               	movwf	(___fldiv@b+3)^0,c
  4240   002128                     l4169:
  4241   002128  BE3B               	btfsc	(___fldiv@new_exp+1)^0,7,c
  4242   00212A  EFA1  F010         	goto	u3800
  4243   00212E  503B               	movf	(___fldiv@new_exp+1)^0,w,c
  4244   002130  E106               	bnz	u3801
  4245   002132  043A               	decf	___fldiv@new_exp^0,w,c
  4246   002134  B0D8               	btfsc	status,0,c
  4247   002136  EF9F  F010         	goto	u3801
  4248   00213A  EFA1  F010         	goto	u3800
  4249   00213E                     u3801:
  4250   00213E  EFAF  F010         	goto	l4173
  4251   002142                     u3800:
  4252   002142  0E00               	movlw	0
  4253   002144  6E3B               	movwf	(___fldiv@new_exp+1)^0,c
  4254   002146  0E00               	movlw	0
  4255   002148  6E3A               	movwf	___fldiv@new_exp^0,c
  4256   00214A  0E00               	movlw	0
  4257   00214C  6E29               	movwf	___fldiv@b^0,c
  4258   00214E  0E00               	movlw	0
  4259   002150  6E2A               	movwf	(___fldiv@b+1)^0,c
  4260   002152  0E00               	movlw	0
  4261   002154  6E2B               	movwf	(___fldiv@b+2)^0,c
  4262   002156  0E00               	movlw	0
  4263   002158  6E2C               	movwf	(___fldiv@b+3)^0,c
  4264   00215A  0E00               	movlw	0
  4265   00215C  6E39               	movwf	___fldiv@sign^0,c
  4266   00215E                     l4173:
  4267   00215E  C03A  F040         	movff	___fldiv@new_exp,___fldiv@bexp
  4268   002162  A040               	btfss	___fldiv@bexp^0,0,c
  4269   002164  EFB6  F010         	goto	u3811
  4270   002168  EFB8  F010         	goto	u3810
  4271   00216C                     u3811:
  4272   00216C  EFBB  F010         	goto	l4179
  4273   002170                     u3810:
  4274   002170  8E2B               	bsf	(___fldiv@b+2)^0,7,c
  4275   002172  EFBC  F010         	goto	l4181
  4276   002176                     l4179:
  4277   002176  9E2B               	bcf	(___fldiv@b+2)^0,7,c
  4278   002178                     l4181:
  4279   002178  90D8               	bcf	status,0,c
  4280   00217A  3040               	rrcf	___fldiv@bexp^0,w,c
  4281   00217C  6E2C               	movwf	(___fldiv@b+3)^0,c
  4282   00217E  EF72  F00F         	goto	l4095
  4283   002182                     l1588:
  4284   002182  0012               	return		;funcret
  4285   002184                     __end_of___fldiv:
  4286                           	callstack 0
  4287                           
  4288 ;; *************** function ___fladd *****************
  4289 ;; Defined at:
  4290 ;;		line 10 in file "C:\Program Files\Microchip\xc8\v2.46\pic\sources\c99\common\sprcadd.c"
  4291 ;; Parameters:    Size  Location     Type
  4292 ;;  b               4   65[COMRAM] unsigned char 
  4293 ;;  a               4   69[COMRAM] unsigned char 
  4294 ;; Auto vars:     Size  Location     Type
  4295 ;;  grs             1   80[COMRAM] unsigned char 
  4296 ;;  bexp            1   79[COMRAM] unsigned char 
  4297 ;;  aexp            1   78[COMRAM] unsigned char 
  4298 ;;  signs           1   77[COMRAM] unsigned char 
  4299 ;; Return value:  Size  Location     Type
  4300 ;;                  4   65[COMRAM] unsigned char 
  4301 ;; Registers used:
  4302 ;;		wreg, status,2, status,0
  4303 ;; Tracked objects:
  4304 ;;		On entry : 0/0
  4305 ;;		On exit  : 0/0
  4306 ;;		Unchanged: 0/0
  4307 ;; Data sizes:     COMRAM   BANK0   BANK1   BANK2   BANK3   BANK4   BANK5   BANK6   BANK7   BANK8   BANK9  BANK10  BANK1
      +1  BANK12  BANK13  BANK14  BANK15
  4308 ;;      Params:         8       0       0       0       0       0       0       0       0       0       0       0       
      +0       0       0       0       0
  4309 ;;      Locals:         4       0       0       0       0       0       0       0       0       0       0       0       
      +0       0       0       0       0
  4310 ;;      Temps:          4       0       0       0       0       0       0       0       0       0       0       0       
      +0       0       0       0       0
  4311 ;;      Totals:        16       0       0       0       0       0       0       0       0       0       0       0       
      +0       0       0       0       0
  4312 ;;Total ram usage:       16 bytes
  4313 ;; Hardware stack levels used: 1
  4314 ;; Hardware stack levels required when called: 2
  4315 ;; This function calls:
  4316 ;;		Nothing
  4317 ;; This function is called by:
  4318 ;;		_CCP_PWM_Mode_Config
  4319 ;;		_EUSART_Baud_Rate_Calculation
  4320 ;; This function uses a non-reentrant model
  4321 ;;
  4322                           
  4323                           	psect	text17
  4324   001500                     __ptext17:
  4325                           	callstack 0
  4326   001500                     ___fladd:
  4327                           	callstack 24
  4328   001500  5045               	movf	(___fladd@b+3)^0,w,c
  4329   001502  0B80               	andlw	128
  4330   001504  6E4E               	movwf	___fladd@signs^0,c
  4331   001506  5045               	movf	(___fladd@b+3)^0,w,c
  4332   001508  2445               	addwf	(___fladd@b+3)^0,w,c
  4333   00150A  6E50               	movwf	___fladd@bexp^0,c
  4334   00150C  AE44               	btfss	(___fladd@b+2)^0,7,c
  4335   00150E  EF8B  F00A         	goto	u3201
  4336   001512  EF8D  F00A         	goto	u3200
  4337   001516                     u3201:
  4338   001516  EF8E  F00A         	goto	l3855
  4339   00151A                     u3200:
  4340   00151A  8050               	bsf	___fladd@bexp^0,0,c
  4341   00151C                     l3855:
  4342   00151C  5050               	movf	___fladd@bexp^0,w,c
  4343   00151E  B4D8               	btfsc	status,2,c
  4344   001520  EF94  F00A         	goto	u3211
  4345   001524  EF96  F00A         	goto	u3210
  4346   001528                     u3211:
  4347   001528  EFAB  F00A         	goto	l3865
  4348   00152C                     u3210:
  4349   00152C  2850               	incf	___fladd@bexp^0,w,c
  4350   00152E  A4D8               	btfss	status,2,c
  4351   001530  EF9C  F00A         	goto	u3221
  4352   001534  EF9E  F00A         	goto	u3220
  4353   001538                     u3221:
  4354   001538  EFA6  F00A         	goto	l3861
  4355   00153C                     u3220:
  4356   00153C  0E00               	movlw	0
  4357   00153E  6E42               	movwf	___fladd@b^0,c
  4358   001540  0E00               	movlw	0
  4359   001542  6E43               	movwf	(___fladd@b+1)^0,c
  4360   001544  0E00               	movlw	0
  4361   001546  6E44               	movwf	(___fladd@b+2)^0,c
  4362   001548  0E00               	movlw	0
  4363   00154A  6E45               	movwf	(___fladd@b+3)^0,c
  4364   00154C                     l3861:
  4365   00154C  8E44               	bsf	(___fladd@b+2)^0,7,c
  4366   00154E  0E00               	movlw	0
  4367   001550  6E45               	movwf	(___fladd@b+3)^0,c
  4368   001552  EFB3  F00A         	goto	l3867
  4369   001556                     l3865:
  4370   001556  0E00               	movlw	0
  4371   001558  6E42               	movwf	___fladd@b^0,c
  4372   00155A  0E00               	movlw	0
  4373   00155C  6E43               	movwf	(___fladd@b+1)^0,c
  4374   00155E  0E00               	movlw	0
  4375   001560  6E44               	movwf	(___fladd@b+2)^0,c
  4376   001562  0E00               	movlw	0
  4377   001564  6E45               	movwf	(___fladd@b+3)^0,c
  4378   001566                     l3867:
  4379   001566  5049               	movf	(___fladd@a+3)^0,w,c
  4380   001568  0B80               	andlw	128
  4381   00156A  6E4F               	movwf	___fladd@aexp^0,c
  4382   00156C  504E               	movf	___fladd@signs^0,w,c
  4383   00156E  184F               	xorwf	___fladd@aexp^0,w,c
  4384   001570  B4D8               	btfsc	status,2,c
  4385   001572  EFBD  F00A         	goto	u3231
  4386   001576  EFBF  F00A         	goto	u3230
  4387   00157A                     u3231:
  4388   00157A  EFC0  F00A         	goto	l3873
  4389   00157E                     u3230:
  4390   00157E  8C4E               	bsf	___fladd@signs^0,6,c
  4391   001580                     l3873:
  4392   001580  5049               	movf	(___fladd@a+3)^0,w,c
  4393   001582  2449               	addwf	(___fladd@a+3)^0,w,c
  4394   001584  6E4F               	movwf	___fladd@aexp^0,c
  4395   001586  AE48               	btfss	(___fladd@a+2)^0,7,c
  4396   001588  EFC8  F00A         	goto	u3241
  4397   00158C  EFCA  F00A         	goto	u3240
  4398   001590                     u3241:
  4399   001590  EFCB  F00A         	goto	l3879
  4400   001594                     u3240:
  4401   001594  804F               	bsf	___fladd@aexp^0,0,c
  4402   001596                     l3879:
  4403   001596  504F               	movf	___fladd@aexp^0,w,c
  4404   001598  B4D8               	btfsc	status,2,c
  4405   00159A  EFD1  F00A         	goto	u3251
  4406   00159E  EFD3  F00A         	goto	u3250
  4407   0015A2                     u3251:
  4408   0015A2  EFE8  F00A         	goto	l3889
  4409   0015A6                     u3250:
  4410   0015A6  284F               	incf	___fladd@aexp^0,w,c
  4411   0015A8  A4D8               	btfss	status,2,c
  4412   0015AA  EFD9  F00A         	goto	u3261
  4413   0015AE  EFDB  F00A         	goto	u3260
  4414   0015B2                     u3261:
  4415   0015B2  EFE3  F00A         	goto	l3885
  4416   0015B6                     u3260:
  4417   0015B6  0E00               	movlw	0
  4418   0015B8  6E46               	movwf	___fladd@a^0,c
  4419   0015BA  0E00               	movlw	0
  4420   0015BC  6E47               	movwf	(___fladd@a+1)^0,c
  4421   0015BE  0E00               	movlw	0
  4422   0015C0  6E48               	movwf	(___fladd@a+2)^0,c
  4423   0015C2  0E00               	movlw	0
  4424   0015C4  6E49               	movwf	(___fladd@a+3)^0,c
  4425   0015C6                     l3885:
  4426   0015C6  8E48               	bsf	(___fladd@a+2)^0,7,c
  4427   0015C8  0E00               	movlw	0
  4428   0015CA  6E49               	movwf	(___fladd@a+3)^0,c
  4429   0015CC  EFF0  F00A         	goto	l3891
  4430   0015D0                     l3889:
  4431   0015D0  0E00               	movlw	0
  4432   0015D2  6E46               	movwf	___fladd@a^0,c
  4433   0015D4  0E00               	movlw	0
  4434   0015D6  6E47               	movwf	(___fladd@a+1)^0,c
  4435   0015D8  0E00               	movlw	0
  4436   0015DA  6E48               	movwf	(___fladd@a+2)^0,c
  4437   0015DC  0E00               	movlw	0
  4438   0015DE  6E49               	movwf	(___fladd@a+3)^0,c
  4439   0015E0                     l3891:
  4440   0015E0  5050               	movf	___fladd@bexp^0,w,c
  4441   0015E2  5C4F               	subwf	___fladd@aexp^0,w,c
  4442   0015E4  B0D8               	btfsc	status,0,c
  4443   0015E6  EFF7  F00A         	goto	u3271
  4444   0015EA  EFF9  F00A         	goto	u3270
  4445   0015EE                     u3271:
  4446   0015EE  EF20  F00B         	goto	l3927
  4447   0015F2                     u3270:
  4448   0015F2  AC4E               	btfss	___fladd@signs^0,6,c
  4449   0015F4  EFFE  F00A         	goto	u3281
  4450   0015F8  EF00  F00B         	goto	u3280
  4451   0015FC                     u3281:
  4452   0015FC  EF02  F00B         	goto	l3897
  4453   001600                     u3280:
  4454   001600  0E80               	movlw	128
  4455   001602  1A4E               	xorwf	___fladd@signs^0,f,c
  4456   001604                     l3897:
  4457   001604  C050  F051         	movff	___fladd@bexp,___fladd@grs
  4458   001608  C04F  F050         	movff	___fladd@aexp,___fladd@bexp
  4459   00160C  C051  F04F         	movff	___fladd@grs,___fladd@aexp
  4460   001610  C042  F051         	movff	___fladd@b,___fladd@grs
  4461   001614  C046  F042         	movff	___fladd@a,___fladd@b
  4462   001618  C051  F046         	movff	___fladd@grs,___fladd@a
  4463   00161C  C043  F051         	movff	___fladd@b+1,___fladd@grs
  4464   001620  C047  F043         	movff	___fladd@a+1,___fladd@b+1
  4465   001624  C051  F047         	movff	___fladd@grs,___fladd@a+1
  4466   001628  C044  F051         	movff	___fladd@b+2,___fladd@grs
  4467   00162C  C048  F044         	movff	___fladd@a+2,___fladd@b+2
  4468   001630  C051  F048         	movff	___fladd@grs,___fladd@a+2
  4469   001634  C045  F051         	movff	___fladd@b+3,___fladd@grs
  4470   001638  C049  F045         	movff	___fladd@a+3,___fladd@b+3
  4471   00163C  C051  F049         	movff	___fladd@grs,___fladd@a+3
  4472   001640                     l3927:
  4473   001640  0E00               	movlw	0
  4474   001642  6E51               	movwf	___fladd@grs^0,c
  4475   001644  5050               	movf	___fladd@bexp^0,w,c
  4476   001646  C04F  F04A         	movff	___fladd@aexp,??___fladd
  4477   00164A  6A4B               	clrf	(??___fladd+1)^0,c
  4478   00164C  5E4A               	subwf	??___fladd^0,f,c
  4479   00164E  0E00               	movlw	0
  4480   001650  5A4B               	subwfb	(??___fladd+1)^0,f,c
  4481   001652  BE4B               	btfsc	(??___fladd+1)^0,7,c
  4482   001654  EF35  F00B         	goto	u3291
  4483   001658  504B               	movf	(??___fladd+1)^0,w,c
  4484   00165A  E109               	bnz	u3290
  4485   00165C  0E1A               	movlw	26
  4486   00165E  5C4A               	subwf	??___fladd^0,w,c
  4487   001660  A0D8               	btfss	status,0,c
  4488   001662  EF35  F00B         	goto	u3291
  4489   001666  EF37  F00B         	goto	u3290
  4490   00166A                     u3291:
  4491   00166A  EF6E  F00B         	goto	l1535
  4492   00166E                     u3290:
  4493   00166E  5042               	movf	___fladd@b^0,w,c
  4494   001670  1043               	iorwf	(___fladd@b+1)^0,w,c
  4495   001672  1044               	iorwf	(___fladd@b+2)^0,w,c
  4496   001674  1045               	iorwf	(___fladd@b+3)^0,w,c
  4497   001676  A4D8               	btfss	status,2,c
  4498   001678  EF40  F00B         	goto	u3301
  4499   00167C  EF43  F00B         	goto	u3300
  4500   001680                     u3301:
  4501   001680  0E01               	movlw	1
  4502   001682  EF44  F00B         	goto	u3310
  4503   001686                     u3300:
  4504   001686  0E00               	movlw	0
  4505   001688                     u3310:
  4506   001688  6E51               	movwf	___fladd@grs^0,c
  4507   00168A  0E00               	movlw	0
  4508   00168C  6E42               	movwf	___fladd@b^0,c
  4509   00168E  0E00               	movlw	0
  4510   001690  6E43               	movwf	(___fladd@b+1)^0,c
  4511   001692  0E00               	movlw	0
  4512   001694  6E44               	movwf	(___fladd@b+2)^0,c
  4513   001696  0E00               	movlw	0
  4514   001698  6E45               	movwf	(___fladd@b+3)^0,c
  4515   00169A  C04F  F050         	movff	___fladd@aexp,___fladd@bexp
  4516   00169E  EF77  F00B         	goto	l1534
  4517   0016A2                     l1536:
  4518   0016A2  A051               	btfss	___fladd@grs^0,0,c
  4519   0016A4  EF56  F00B         	goto	u3321
  4520   0016A8  EF58  F00B         	goto	u3320
  4521   0016AC                     u3321:
  4522   0016AC  EF5E  F00B         	goto	l3939
  4523   0016B0                     u3320:
  4524   0016B0  90D8               	bcf	status,0,c
  4525   0016B2  3051               	rrcf	___fladd@grs^0,w,c
  4526   0016B4  0901               	iorlw	1
  4527   0016B6  6E51               	movwf	___fladd@grs^0,c
  4528   0016B8  EF60  F00B         	goto	l3941
  4529   0016BC                     l3939:
  4530   0016BC  90D8               	bcf	status,0,c
  4531   0016BE  3251               	rrcf	___fladd@grs^0,f,c
  4532   0016C0                     l3941:
  4533   0016C0  A042               	btfss	___fladd@b^0,0,c
  4534   0016C2  EF65  F00B         	goto	u3331
  4535   0016C6  EF67  F00B         	goto	u3330
  4536   0016CA                     u3331:
  4537   0016CA  EF68  F00B         	goto	l3945
  4538   0016CE                     u3330:
  4539   0016CE  8E51               	bsf	___fladd@grs^0,7,c
  4540   0016D0                     l3945:
  4541   0016D0  3445               	rlcf	(___fladd@b+3)^0,w,c
  4542   0016D2  3245               	rrcf	(___fladd@b+3)^0,f,c
  4543   0016D4  3244               	rrcf	(___fladd@b+2)^0,f,c
  4544   0016D6  3243               	rrcf	(___fladd@b+1)^0,f,c
  4545   0016D8  3242               	rrcf	___fladd@b^0,f,c
  4546   0016DA  2A50               	incf	___fladd@bexp^0,f,c
  4547   0016DC                     l1535:
  4548   0016DC  504F               	movf	___fladd@aexp^0,w,c
  4549   0016DE  5C50               	subwf	___fladd@bexp^0,w,c
  4550   0016E0  A0D8               	btfss	status,0,c
  4551   0016E2  EF75  F00B         	goto	u3341
  4552   0016E6  EF77  F00B         	goto	u3340
  4553   0016EA                     u3341:
  4554   0016EA  EF51  F00B         	goto	l1536
  4555   0016EE                     u3340:
  4556   0016EE                     l1534:
  4557   0016EE  BC4E               	btfsc	___fladd@signs^0,6,c
  4558   0016F0  EF7C  F00B         	goto	u3351
  4559   0016F4  EF7E  F00B         	goto	u3350
  4560   0016F8                     u3351:
  4561   0016F8  EFBE  F00B         	goto	l3973
  4562   0016FC                     u3350:
  4563   0016FC  5050               	movf	___fladd@bexp^0,w,c
  4564   0016FE  A4D8               	btfss	status,2,c
  4565   001700  EF84  F00B         	goto	u3361
  4566   001704  EF86  F00B         	goto	u3360
  4567   001708                     u3361:
  4568   001708  EF90  F00B         	goto	l3955
  4569   00170C                     u3360:
  4570   00170C  0E00               	movlw	0
  4571   00170E  6E42               	movwf	?___fladd^0,c
  4572   001710  0E00               	movlw	0
  4573   001712  6E43               	movwf	(?___fladd+1)^0,c
  4574   001714  0E00               	movlw	0
  4575   001716  6E44               	movwf	(?___fladd+2)^0,c
  4576   001718  0E00               	movlw	0
  4577   00171A  6E45               	movwf	(?___fladd+3)^0,c
  4578   00171C  EFDF  F00C         	goto	l1543
  4579   001720                     l3955:
  4580   001720  5046               	movf	___fladd@a^0,w,c
  4581   001722  2642               	addwf	___fladd@b^0,f,c
  4582   001724  5047               	movf	(___fladd@a+1)^0,w,c
  4583   001726  2243               	addwfc	(___fladd@b+1)^0,f,c
  4584   001728  5048               	movf	(___fladd@a+2)^0,w,c
  4585   00172A  2244               	addwfc	(___fladd@b+2)^0,f,c
  4586   00172C  5049               	movf	(___fladd@a+3)^0,w,c
  4587   00172E  2245               	addwfc	(___fladd@b+3)^0,f,c
  4588   001730  A045               	btfss	(___fladd@b+3)^0,0,c
  4589   001732  EF9D  F00B         	goto	u3371
  4590   001736  EF9F  F00B         	goto	u3370
  4591   00173A                     u3371:
  4592   00173A  EF4B  F00C         	goto	l4009
  4593   00173E                     u3370:
  4594   00173E  A051               	btfss	___fladd@grs^0,0,c
  4595   001740  EFA4  F00B         	goto	u3381
  4596   001744  EFA6  F00B         	goto	u3380
  4597   001748                     u3381:
  4598   001748  EFAC  F00B         	goto	l3963
  4599   00174C                     u3380:
  4600   00174C  90D8               	bcf	status,0,c
  4601   00174E  3051               	rrcf	___fladd@grs^0,w,c
  4602   001750  0901               	iorlw	1
  4603   001752  6E51               	movwf	___fladd@grs^0,c
  4604   001754  EFAE  F00B         	goto	l3965
  4605   001758                     l3963:
  4606   001758  90D8               	bcf	status,0,c
  4607   00175A  3251               	rrcf	___fladd@grs^0,f,c
  4608   00175C                     l3965:
  4609   00175C  A042               	btfss	___fladd@b^0,0,c
  4610   00175E  EFB3  F00B         	goto	u3391
  4611   001762  EFB5  F00B         	goto	u3390
  4612   001766                     u3391:
  4613   001766  EFB6  F00B         	goto	l3969
  4614   00176A                     u3390:
  4615   00176A  8E51               	bsf	___fladd@grs^0,7,c
  4616   00176C                     l3969:
  4617   00176C  3445               	rlcf	(___fladd@b+3)^0,w,c
  4618   00176E  3245               	rrcf	(___fladd@b+3)^0,f,c
  4619   001770  3244               	rrcf	(___fladd@b+2)^0,f,c
  4620   001772  3243               	rrcf	(___fladd@b+1)^0,f,c
  4621   001774  3242               	rrcf	___fladd@b^0,f,c
  4622   001776  2A50               	incf	___fladd@bexp^0,f,c
  4623   001778  EF4B  F00C         	goto	l4009
  4624   00177C                     l3973:
  4625   00177C  5046               	movf	___fladd@a^0,w,c
  4626   00177E  5C42               	subwf	___fladd@b^0,w,c
  4627   001780  5047               	movf	(___fladd@a+1)^0,w,c
  4628   001782  5843               	subwfb	(___fladd@b+1)^0,w,c
  4629   001784  5048               	movf	(___fladd@a+2)^0,w,c
  4630   001786  5844               	subwfb	(___fladd@b+2)^0,w,c
  4631   001788  5045               	movf	(___fladd@b+3)^0,w,c
  4632   00178A  0A80               	xorlw	128
  4633   00178C  6E4A               	movwf	??___fladd^0,c
  4634   00178E  5049               	movf	(___fladd@a+3)^0,w,c
  4635   001790  0A80               	xorlw	128
  4636   001792  584A               	subwfb	??___fladd^0,w,c
  4637   001794  B0D8               	btfsc	status,0,c
  4638   001796  EFCF  F00B         	goto	u3401
  4639   00179A  EFD1  F00B         	goto	u3400
  4640   00179E                     u3401:
  4641   00179E  EFFC  F00B         	goto	l3983
  4642   0017A2                     u3400:
  4643   0017A2  5042               	movf	___fladd@b^0,w,c
  4644   0017A4  5C46               	subwf	___fladd@a^0,w,c
  4645   0017A6  6E4A               	movwf	??___fladd^0,c
  4646   0017A8  5043               	movf	(___fladd@b+1)^0,w,c
  4647   0017AA  5847               	subwfb	(___fladd@a+1)^0,w,c
  4648   0017AC  6E4B               	movwf	(??___fladd+1)^0,c
  4649   0017AE  5044               	movf	(___fladd@b+2)^0,w,c
  4650   0017B0  5848               	subwfb	(___fladd@a+2)^0,w,c
  4651   0017B2  6E4C               	movwf	(??___fladd+2)^0,c
  4652   0017B4  5045               	movf	(___fladd@b+3)^0,w,c
  4653   0017B6  5849               	subwfb	(___fladd@a+3)^0,w,c
  4654   0017B8  6E4D               	movwf	(??___fladd+3)^0,c
  4655   0017BA  0EFF               	movlw	255
  4656   0017BC  244A               	addwf	??___fladd^0,w,c
  4657   0017BE  6E42               	movwf	___fladd@b^0,c
  4658   0017C0  0EFF               	movlw	255
  4659   0017C2  204B               	addwfc	(??___fladd+1)^0,w,c
  4660   0017C4  6E43               	movwf	(___fladd@b+1)^0,c
  4661   0017C6  0EFF               	movlw	255
  4662   0017C8  204C               	addwfc	(??___fladd+2)^0,w,c
  4663   0017CA  6E44               	movwf	(___fladd@b+2)^0,c
  4664   0017CC  0EFF               	movlw	255
  4665   0017CE  204D               	addwfc	(??___fladd+3)^0,w,c
  4666   0017D0  6E45               	movwf	(___fladd@b+3)^0,c
  4667   0017D2  0E80               	movlw	128
  4668   0017D4  1A4E               	xorwf	___fladd@signs^0,f,c
  4669   0017D6  6C51               	negf	___fladd@grs^0,c
  4670   0017D8  5051               	movf	___fladd@grs^0,w,c
  4671   0017DA  A4D8               	btfss	status,2,c
  4672   0017DC  EFF2  F00B         	goto	u3411
  4673   0017E0  EFF4  F00B         	goto	u3410
  4674   0017E4                     u3411:
  4675   0017E4  EF04  F00C         	goto	l1551
  4676   0017E8                     u3410:
  4677   0017E8  0E01               	movlw	1
  4678   0017EA  2642               	addwf	___fladd@b^0,f,c
  4679   0017EC  0E00               	movlw	0
  4680   0017EE  2243               	addwfc	(___fladd@b+1)^0,f,c
  4681   0017F0  2244               	addwfc	(___fladd@b+2)^0,f,c
  4682   0017F2  2245               	addwfc	(___fladd@b+3)^0,f,c
  4683   0017F4  EF04  F00C         	goto	l1551
  4684   0017F8                     l3983:
  4685   0017F8  5046               	movf	___fladd@a^0,w,c
  4686   0017FA  5E42               	subwf	___fladd@b^0,f,c
  4687   0017FC  5047               	movf	(___fladd@a+1)^0,w,c
  4688   0017FE  5A43               	subwfb	(___fladd@b+1)^0,f,c
  4689   001800  5048               	movf	(___fladd@a+2)^0,w,c
  4690   001802  5A44               	subwfb	(___fladd@b+2)^0,f,c
  4691   001804  5049               	movf	(___fladd@a+3)^0,w,c
  4692   001806  5A45               	subwfb	(___fladd@b+3)^0,f,c
  4693   001808                     l1551:
  4694   001808  5042               	movf	___fladd@b^0,w,c
  4695   00180A  1043               	iorwf	(___fladd@b+1)^0,w,c
  4696   00180C  1044               	iorwf	(___fladd@b+2)^0,w,c
  4697   00180E  1045               	iorwf	(___fladd@b+3)^0,w,c
  4698   001810  A4D8               	btfss	status,2,c
  4699   001812  EF0D  F00C         	goto	u3421
  4700   001816  EF0F  F00C         	goto	u3420
  4701   00181A                     u3421:
  4702   00181A  EF44  F00C         	goto	l4007
  4703   00181E                     u3420:
  4704   00181E  5051               	movf	___fladd@grs^0,w,c
  4705   001820  A4D8               	btfss	status,2,c
  4706   001822  EF15  F00C         	goto	u3431
  4707   001826  EF17  F00C         	goto	u3430
  4708   00182A                     u3431:
  4709   00182A  EF44  F00C         	goto	l4007
  4710   00182E                     u3430:
  4711   00182E  0E00               	movlw	0
  4712   001830  6E42               	movwf	?___fladd^0,c
  4713   001832  0E00               	movlw	0
  4714   001834  6E43               	movwf	(?___fladd+1)^0,c
  4715   001836  0E00               	movlw	0
  4716   001838  6E44               	movwf	(?___fladd+2)^0,c
  4717   00183A  0E00               	movlw	0
  4718   00183C  6E45               	movwf	(?___fladd+3)^0,c
  4719   00183E  EFDF  F00C         	goto	l1543
  4720   001842                     l3991:
  4721   001842  90D8               	bcf	status,0,c
  4722   001844  3642               	rlcf	___fladd@b^0,f,c
  4723   001846  3643               	rlcf	(___fladd@b+1)^0,f,c
  4724   001848  3644               	rlcf	(___fladd@b+2)^0,f,c
  4725   00184A  3645               	rlcf	(___fladd@b+3)^0,f,c
  4726   00184C  AE51               	btfss	___fladd@grs^0,7,c
  4727   00184E  EF2B  F00C         	goto	u3441
  4728   001852  EF2D  F00C         	goto	u3440
  4729   001856                     u3441:
  4730   001856  EF2E  F00C         	goto	l3997
  4731   00185A                     u3440:
  4732   00185A  8042               	bsf	___fladd@b^0,0,c
  4733   00185C                     l3997:
  4734   00185C  A051               	btfss	___fladd@grs^0,0,c
  4735   00185E  EF33  F00C         	goto	u3451
  4736   001862  EF35  F00C         	goto	u3450
  4737   001866                     u3451:
  4738   001866  EF39  F00C         	goto	l4001
  4739   00186A                     u3450:
  4740   00186A  80D8               	bsf	status,0,c
  4741   00186C  3651               	rlcf	___fladd@grs^0,f,c
  4742   00186E  EF3B  F00C         	goto	l4003
  4743   001872                     l4001:
  4744   001872  90D8               	bcf	status,0,c
  4745   001874  3651               	rlcf	___fladd@grs^0,f,c
  4746   001876                     l4003:
  4747   001876  5050               	movf	___fladd@bexp^0,w,c
  4748   001878  B4D8               	btfsc	status,2,c
  4749   00187A  EF41  F00C         	goto	u3461
  4750   00187E  EF43  F00C         	goto	u3460
  4751   001882                     u3461:
  4752   001882  EF44  F00C         	goto	l4007
  4753   001886                     u3460:
  4754   001886  0650               	decf	___fladd@bexp^0,f,c
  4755   001888                     l4007:
  4756   001888  AE44               	btfss	(___fladd@b+2)^0,7,c
  4757   00188A  EF49  F00C         	goto	u3471
  4758   00188E  EF4B  F00C         	goto	u3470
  4759   001892                     u3471:
  4760   001892  EF21  F00C         	goto	l3991
  4761   001896                     u3470:
  4762   001896                     l4009:
  4763   001896  0E00               	movlw	0
  4764   001898  6E4F               	movwf	___fladd@aexp^0,c
  4765   00189A  AE51               	btfss	___fladd@grs^0,7,c
  4766   00189C  EF52  F00C         	goto	u3481
  4767   0018A0  EF54  F00C         	goto	u3480
  4768   0018A4                     u3481:
  4769   0018A4  EF6C  F00C         	goto	l1560
  4770   0018A8                     u3480:
  4771   0018A8  C051  F04A         	movff	___fladd@grs,??___fladd
  4772   0018AC  0E7F               	movlw	127
  4773   0018AE  164A               	andwf	??___fladd^0,f,c
  4774   0018B0  B4D8               	btfsc	status,2,c
  4775   0018B2  EF5D  F00C         	goto	u3491
  4776   0018B6  EF5F  F00C         	goto	u3490
  4777   0018BA                     u3491:
  4778   0018BA  EF63  F00C         	goto	l1561
  4779   0018BE                     u3490:
  4780   0018BE                     l4015:
  4781   0018BE  0E01               	movlw	1
  4782   0018C0  6E4F               	movwf	___fladd@aexp^0,c
  4783   0018C2  EF6C  F00C         	goto	l1560
  4784   0018C6                     l1561:
  4785   0018C6  A042               	btfss	___fladd@b^0,0,c
  4786   0018C8  EF68  F00C         	goto	u3501
  4787   0018CC  EF6A  F00C         	goto	u3500
  4788   0018D0                     u3501:
  4789   0018D0  EF6C  F00C         	goto	l1560
  4790   0018D4                     u3500:
  4791   0018D4  EF5F  F00C         	goto	l4015
  4792   0018D8                     l1560:
  4793   0018D8  504F               	movf	___fladd@aexp^0,w,c
  4794   0018DA  B4D8               	btfsc	status,2,c
  4795   0018DC  EF72  F00C         	goto	u3511
  4796   0018E0  EF74  F00C         	goto	u3510
  4797   0018E4                     u3511:
  4798   0018E4  EF9F  F00C         	goto	l4027
  4799   0018E8                     u3510:
  4800   0018E8  0E01               	movlw	1
  4801   0018EA  2642               	addwf	___fladd@b^0,f,c
  4802   0018EC  0E00               	movlw	0
  4803   0018EE  2243               	addwfc	(___fladd@b+1)^0,f,c
  4804   0018F0  2244               	addwfc	(___fladd@b+2)^0,f,c
  4805   0018F2  2245               	addwfc	(___fladd@b+3)^0,f,c
  4806   0018F4  A045               	btfss	(___fladd@b+3)^0,0,c
  4807   0018F6  EF7F  F00C         	goto	u3521
  4808   0018FA  EF81  F00C         	goto	u3520
  4809   0018FE                     u3521:
  4810   0018FE  EF9F  F00C         	goto	l4027
  4811   001902                     u3520:
  4812   001902  C042  F04A         	movff	___fladd@b,??___fladd
  4813   001906  C043  F04B         	movff	___fladd@b+1,??___fladd+1
  4814   00190A  C044  F04C         	movff	___fladd@b+2,??___fladd+2
  4815   00190E  C045  F04D         	movff	___fladd@b+3,??___fladd+3
  4816   001912  344D               	rlcf	(??___fladd+3)^0,w,c
  4817   001914  324D               	rrcf	(??___fladd+3)^0,f,c
  4818   001916  324C               	rrcf	(??___fladd+2)^0,f,c
  4819   001918  324B               	rrcf	(??___fladd+1)^0,f,c
  4820   00191A  324A               	rrcf	??___fladd^0,f,c
  4821   00191C  C04A  F042         	movff	??___fladd,___fladd@b
  4822   001920  C04B  F043         	movff	??___fladd+1,___fladd@b+1
  4823   001924  C04C  F044         	movff	??___fladd+2,___fladd@b+2
  4824   001928  C04D  F045         	movff	??___fladd+3,___fladd@b+3
  4825   00192C  2850               	incf	___fladd@bexp^0,w,c
  4826   00192E  B4D8               	btfsc	status,2,c
  4827   001930  EF9C  F00C         	goto	u3531
  4828   001934  EF9E  F00C         	goto	u3530
  4829   001938                     u3531:
  4830   001938  EF9F  F00C         	goto	l4027
  4831   00193C                     u3530:
  4832   00193C  2A50               	incf	___fladd@bexp^0,f,c
  4833   00193E                     l4027:
  4834   00193E  2850               	incf	___fladd@bexp^0,w,c
  4835   001940  B4D8               	btfsc	status,2,c
  4836   001942  EFA5  F00C         	goto	u3541
  4837   001946  EFA7  F00C         	goto	u3540
  4838   00194A                     u3541:
  4839   00194A  EFAF  F00C         	goto	l4031
  4840   00194E                     u3540:
  4841   00194E  5050               	movf	___fladd@bexp^0,w,c
  4842   001950  A4D8               	btfss	status,2,c
  4843   001952  EFAD  F00C         	goto	u3551
  4844   001956  EFAF  F00C         	goto	u3550
  4845   00195A                     u3551:
  4846   00195A  EFC1  F00C         	goto	l4035
  4847   00195E                     u3550:
  4848   00195E                     l4031:
  4849   00195E  0E00               	movlw	0
  4850   001960  6E42               	movwf	___fladd@b^0,c
  4851   001962  0E00               	movlw	0
  4852   001964  6E43               	movwf	(___fladd@b+1)^0,c
  4853   001966  0E00               	movlw	0
  4854   001968  6E44               	movwf	(___fladd@b+2)^0,c
  4855   00196A  0E00               	movlw	0
  4856   00196C  6E45               	movwf	(___fladd@b+3)^0,c
  4857   00196E  5050               	movf	___fladd@bexp^0,w,c
  4858   001970  A4D8               	btfss	status,2,c
  4859   001972  EFBD  F00C         	goto	u3561
  4860   001976  EFBF  F00C         	goto	u3560
  4861   00197A                     u3561:
  4862   00197A  EFC1  F00C         	goto	l4035
  4863   00197E                     u3560:
  4864   00197E  0E00               	movlw	0
  4865   001980  6E4E               	movwf	___fladd@signs^0,c
  4866   001982                     l4035:
  4867   001982  A050               	btfss	___fladd@bexp^0,0,c
  4868   001984  EFC6  F00C         	goto	u3571
  4869   001988  EFC8  F00C         	goto	u3570
  4870   00198C                     u3571:
  4871   00198C  EFCB  F00C         	goto	l4039
  4872   001990                     u3570:
  4873   001990  8E44               	bsf	(___fladd@b+2)^0,7,c
  4874   001992  EFCC  F00C         	goto	l4041
  4875   001996                     l4039:
  4876   001996  9E44               	bcf	(___fladd@b+2)^0,7,c
  4877   001998                     l4041:
  4878   001998  90D8               	bcf	status,0,c
  4879   00199A  3050               	rrcf	___fladd@bexp^0,w,c
  4880   00199C  6E45               	movwf	(___fladd@b+3)^0,c
  4881   00199E  AE4E               	btfss	___fladd@signs^0,7,c
  4882   0019A0  EFD4  F00C         	goto	u3581
  4883   0019A4  EFD6  F00C         	goto	u3580
  4884   0019A8                     u3581:
  4885   0019A8  EFD7  F00C         	goto	l4047
  4886   0019AC                     u3580:
  4887   0019AC  8E45               	bsf	(___fladd@b+3)^0,7,c
  4888   0019AE                     l4047:
  4889   0019AE  C042  F042         	movff	___fladd@b,?___fladd
  4890   0019B2  C043  F043         	movff	___fladd@b+1,?___fladd+1
  4891   0019B6  C044  F044         	movff	___fladd@b+2,?___fladd+2
  4892   0019BA  C045  F045         	movff	___fladd@b+3,?___fladd+3
  4893   0019BE                     l1543:
  4894   0019BE  0012               	return		;funcret
  4895   0019C0                     __end_of___fladd:
  4896                           	callstack 0
  4897                           
  4898 ;; *************** function _CCP_Interrupt_Config *****************
  4899 ;; Defined at:
  4900 ;;		line 351 in file "MCAL_Layer/CCP/hal_ccp.c"
  4901 ;; Parameters:    Size  Location     Type
  4902 ;;  _ccp_obj        1    1[COMRAM] PTR const struct .
  4903 ;;		 -> ccp1_pwm(14), 
  4904 ;; Auto vars:     Size  Location     Type
  4905 ;;		None
  4906 ;; Return value:  Size  Location     Type
  4907 ;;                  1    wreg      void 
  4908 ;; Registers used:
  4909 ;;		wreg, fsr2l, fsr2h, status,2, status,0
  4910 ;; Tracked objects:
  4911 ;;		On entry : 0/0
  4912 ;;		On exit  : 0/0
  4913 ;;		Unchanged: 0/0
  4914 ;; Data sizes:     COMRAM   BANK0   BANK1   BANK2   BANK3   BANK4   BANK5   BANK6   BANK7   BANK8   BANK9  BANK10  BANK1
      +1  BANK12  BANK13  BANK14  BANK15
  4915 ;;      Params:         1       0       0       0       0       0       0       0       0       0       0       0       
      +0       0       0       0       0
  4916 ;;      Locals:         0       0       0       0       0       0       0       0       0       0       0       0       
      +0       0       0       0       0
  4917 ;;      Temps:          0       0       0       0       0       0       0       0       0       0       0       0       
      +0       0       0       0       0
  4918 ;;      Totals:         1       0       0       0       0       0       0       0       0       0       0       0       
      +0       0       0       0       0
  4919 ;;Total ram usage:        1 bytes
  4920 ;; Hardware stack levels used: 1
  4921 ;; Hardware stack levels required when called: 2
  4922 ;; This function calls:
  4923 ;;		Nothing
  4924 ;; This function is called by:
  4925 ;;		_CCP_Init
  4926 ;; This function uses a non-reentrant model
  4927 ;;
  4928                           
  4929                           	psect	text18
  4930   0034F2                     __ptext18:
  4931                           	callstack 0
  4932   0034F2                     _CCP_Interrupt_Config:
  4933                           	callstack 25
  4934   0034F2                     
  4935                           ;MCAL_Layer/CCP/hal_ccp.c: 354:     (PIE1bits.CCP1IE = 1);
  4936   0034F2  849D               	bsf	157,2,c	;volatile
  4937                           
  4938                           ;MCAL_Layer/CCP/hal_ccp.c: 355:     (PIR1bits.CCP1IF = 0);
  4939   0034F4  949E               	bcf	158,2,c	;volatile
  4940   0034F6                     
  4941                           ;MCAL_Layer/CCP/hal_ccp.c: 356:     CCP1_InterruptHandler = _ccp_obj->CCP1_InterruptHand
      +                          ler;
  4942   0034F6  5002               	movf	CCP_Interrupt_Config@_ccp_obj^0,w,c
  4943   0034F8  6ED9               	movwf	fsr2l,c
  4944   0034FA  6ADA               	clrf	fsr2h,c
  4945   0034FC  0E08               	movlw	8
  4946   0034FE  26D9               	addwf	fsr2l,f,c
  4947   003500  CFDE F06E          	movff	postinc2,_CCP1_InterruptHandler
  4948   003504  CFDD F06F          	movff	postdec2,_CCP1_InterruptHandler+1
  4949   003508                     
  4950                           ;MCAL_Layer/CCP/hal_ccp.c: 372:     (INTCONbits.GIE = 1);
  4951   003508  8EF2               	bsf	242,7,c	;volatile
  4952   00350A                     
  4953                           ;MCAL_Layer/CCP/hal_ccp.c: 373:     (INTCONbits.PEIE = 1);
  4954   00350A  8CF2               	bsf	242,6,c	;volatile
  4955   00350C                     
  4956                           ;MCAL_Layer/CCP/hal_ccp.c: 379:     (PIE2bits.CCP2IE = 1);
  4957   00350C  80A0               	bsf	160,0,c	;volatile
  4958   00350E                     
  4959                           ;MCAL_Layer/CCP/hal_ccp.c: 380:     (PIR2bits.CCP2IF = 0);
  4960   00350E  90A1               	bcf	161,0,c	;volatile
  4961                           
  4962                           ;MCAL_Layer/CCP/hal_ccp.c: 381:     CCP2_InterruptHandler = _ccp_obj->CCP2_InterruptHand
      +                          ler;
  4963   003510  5002               	movf	CCP_Interrupt_Config@_ccp_obj^0,w,c
  4964   003512  6ED9               	movwf	fsr2l,c
  4965   003514  6ADA               	clrf	fsr2h,c
  4966   003516  0E0B               	movlw	11
  4967   003518  26D9               	addwf	fsr2l,f,c
  4968   00351A  CFDE F06C          	movff	postinc2,_CCP2_InterruptHandler
  4969   00351E  CFDD F06D          	movff	postdec2,_CCP2_InterruptHandler+1
  4970   003522                     
  4971                           ;MCAL_Layer/CCP/hal_ccp.c: 397:     (INTCONbits.GIE = 1);
  4972   003522  8EF2               	bsf	242,7,c	;volatile
  4973   003524                     
  4974                           ;MCAL_Layer/CCP/hal_ccp.c: 398:     (INTCONbits.PEIE = 1);
  4975   003524  8CF2               	bsf	242,6,c	;volatile
  4976   003526  0012               	return		;funcret
  4977   003528                     __end_of_CCP_Interrupt_Config:
  4978                           	callstack 0
  4979                           
  4980 ;; *************** function _CCP_Compare_Mode_Config *****************
  4981 ;; Defined at:
  4982 ;;		line 453 in file "MCAL_Layer/CCP/hal_ccp.c"
  4983 ;; Parameters:    Size  Location     Type
  4984 ;;  _ccp_obj        1    3[COMRAM] PTR const struct .
  4985 ;;		 -> ccp1_pwm(14), 
  4986 ;; Auto vars:     Size  Location     Type
  4987 ;;  ret             1    5[COMRAM] unsigned char 
  4988 ;; Return value:  Size  Location     Type
  4989 ;;                  1    wreg      unsigned char 
  4990 ;; Registers used:
  4991 ;;		wreg, fsr2l, fsr2h, status,2, status,0, cstack
  4992 ;; Tracked objects:
  4993 ;;		On entry : 0/0
  4994 ;;		On exit  : 0/0
  4995 ;;		Unchanged: 0/0
  4996 ;; Data sizes:     COMRAM   BANK0   BANK1   BANK2   BANK3   BANK4   BANK5   BANK6   BANK7   BANK8   BANK9  BANK10  BANK1
      +1  BANK12  BANK13  BANK14  BANK15
  4997 ;;      Params:         1       0       0       0       0       0       0       0       0       0       0       0       
      +0       0       0       0       0
  4998 ;;      Locals:         1       0       0       0       0       0       0       0       0       0       0       0       
      +0       0       0       0       0
  4999 ;;      Temps:          1       0       0       0       0       0       0       0       0       0       0       0       
      +0       0       0       0       0
  5000 ;;      Totals:         3       0       0       0       0       0       0       0       0       0       0       0       
      +0       0       0       0       0
  5001 ;;Total ram usage:        3 bytes
  5002 ;; Hardware stack levels used: 1
  5003 ;; Hardware stack levels required when called: 3
  5004 ;; This function calls:
  5005 ;;		_CCP_Mode_Timer_Select
  5006 ;; This function is called by:
  5007 ;;		_CCP_Init
  5008 ;; This function uses a non-reentrant model
  5009 ;;
  5010                           
  5011                           	psect	text19
  5012   002848                     __ptext19:
  5013                           	callstack 0
  5014   002848                     _CCP_Compare_Mode_Config:
  5015                           	callstack 24
  5016   002848                     
  5017                           ;MCAL_Layer/CCP/hal_ccp.c: 454:     Std_ReturnType ret = (Std_ReturnType)0x01;
  5018   002848  0E01               	movlw	1
  5019   00284A  6E06               	movwf	CCP_Compare_Mode_Config@ret^0,c
  5020   00284C                     
  5021                           ;MCAL_Layer/CCP/hal_ccp.c: 456:     if(CCP1_INST == _ccp_obj->ccp_inst){
  5022   00284C  5004               	movf	CCP_Compare_Mode_Config@_ccp_obj^0,w,c
  5023   00284E  6ED9               	movwf	fsr2l,c
  5024   002850  6ADA               	clrf	fsr2h,c
  5025   002852  50DF               	movf	indf2,w,c
  5026   002854  A4D8               	btfss	status,2,c
  5027   002856  EF2F  F014         	goto	u4221
  5028   00285A  EF31  F014         	goto	u4220
  5029   00285E                     u4221:
  5030   00285E  EF71  F014         	goto	l4483
  5031   002862                     u4220:
  5032   002862  EF55  F014         	goto	l4481
  5033   002866                     l4469:
  5034   002866  50BD               	movf	189,w,c	;volatile
  5035   002868  0BF0               	andlw	-16
  5036   00286A  0908               	iorlw	8
  5037   00286C  6EBD               	movwf	189,c	;volatile
  5038   00286E  EFB8  F014         	goto	l4501
  5039   002872                     l4471:
  5040   002872  50BD               	movf	189,w,c	;volatile
  5041   002874  0BF0               	andlw	-16
  5042   002876  0909               	iorlw	9
  5043   002878  6EBD               	movwf	189,c	;volatile
  5044   00287A  EFB8  F014         	goto	l4501
  5045   00287E                     l4473:
  5046   00287E  50BD               	movf	189,w,c	;volatile
  5047   002880  0BF0               	andlw	-16
  5048   002882  0902               	iorlw	2
  5049   002884  6EBD               	movwf	189,c	;volatile
  5050   002886  EFB8  F014         	goto	l4501
  5051   00288A                     l4475:
  5052   00288A  50BD               	movf	189,w,c	;volatile
  5053   00288C  0BF0               	andlw	-16
  5054   00288E  090A               	iorlw	10
  5055   002890  6EBD               	movwf	189,c	;volatile
  5056   002892  EFB8  F014         	goto	l4501
  5057   002896                     l4477:
  5058   002896  50BD               	movf	189,w,c	;volatile
  5059   002898  0BF0               	andlw	-16
  5060   00289A  090B               	iorlw	11
  5061   00289C  6EBD               	movwf	189,c	;volatile
  5062   00289E  EFB8  F014         	goto	l4501
  5063   0028A2                     l4479:
  5064   0028A2  0E00               	movlw	0
  5065   0028A4  6E06               	movwf	CCP_Compare_Mode_Config@ret^0,c
  5066                           
  5067                           ;MCAL_Layer/CCP/hal_ccp.c: 465:         }
  5068   0028A6  EFB8  F014         	goto	l4501
  5069   0028AA                     l4481:
  5070   0028AA  5004               	movf	CCP_Compare_Mode_Config@_ccp_obj^0,w,c
  5071   0028AC  6ED9               	movwf	fsr2l,c
  5072   0028AE  6ADA               	clrf	fsr2h,c
  5073   0028B0  0E02               	movlw	2
  5074   0028B2  26D9               	addwf	fsr2l,f,c
  5075   0028B4  50DF               	movf	indf2,w,c
  5076                           
  5077                           ; Switch size 1, requested type "simple"
  5078                           ; Number of cases is 5, Range of values is 2 to 11
  5079                           ; switch strategies available:
  5080                           ; Name         Instructions Cycles
  5081                           ; simple_byte           16     9 (average)
  5082                           ;	Chosen strategy is simple_byte
  5083   0028B6  0A02               	xorlw	2	; case 2
  5084   0028B8  B4D8               	btfsc	status,2,c
  5085   0028BA  EF3F  F014         	goto	l4473
  5086   0028BE  0A0A               	xorlw	10	; case 8
  5087   0028C0  B4D8               	btfsc	status,2,c
  5088   0028C2  EF33  F014         	goto	l4469
  5089   0028C6  0A01               	xorlw	1	; case 9
  5090   0028C8  B4D8               	btfsc	status,2,c
  5091   0028CA  EF39  F014         	goto	l4471
  5092   0028CE  0A03               	xorlw	3	; case 10
  5093   0028D0  B4D8               	btfsc	status,2,c
  5094   0028D2  EF45  F014         	goto	l4475
  5095   0028D6  0A01               	xorlw	1	; case 11
  5096   0028D8  B4D8               	btfsc	status,2,c
  5097   0028DA  EF4B  F014         	goto	l4477
  5098   0028DE  EF51  F014         	goto	l4479
  5099   0028E2                     l4483:
  5100   0028E2  5004               	movf	CCP_Compare_Mode_Config@_ccp_obj^0,w,c
  5101   0028E4  6ED9               	movwf	fsr2l,c
  5102   0028E6  6ADA               	clrf	fsr2h,c
  5103   0028E8  04DE               	decf	postinc2,w,c
  5104   0028EA  A4D8               	btfss	status,2,c
  5105   0028EC  EF7A  F014         	goto	u4231
  5106   0028F0  EF7C  F014         	goto	u4230
  5107   0028F4                     u4231:
  5108   0028F4  EFB8  F014         	goto	l4501
  5109   0028F8                     u4230:
  5110   0028F8  EF9C  F014         	goto	l4499
  5111   0028FC                     l4487:
  5112   0028FC  50BA               	movf	186,w,c	;volatile
  5113   0028FE  0BF0               	andlw	-16
  5114   002900  0908               	iorlw	8
  5115   002902  6EBA               	movwf	186,c	;volatile
  5116   002904  EFB8  F014         	goto	l4501
  5117   002908                     l4489:
  5118   002908  50BA               	movf	186,w,c	;volatile
  5119   00290A  0BF0               	andlw	-16
  5120   00290C  0909               	iorlw	9
  5121   00290E  6EBA               	movwf	186,c	;volatile
  5122   002910  EFB8  F014         	goto	l4501
  5123   002914                     l4491:
  5124   002914  50BA               	movf	186,w,c	;volatile
  5125   002916  0BF0               	andlw	-16
  5126   002918  0902               	iorlw	2
  5127   00291A  6EBA               	movwf	186,c	;volatile
  5128   00291C  EFB8  F014         	goto	l4501
  5129   002920                     l4493:
  5130   002920  50BA               	movf	186,w,c	;volatile
  5131   002922  0BF0               	andlw	-16
  5132   002924  090A               	iorlw	10
  5133   002926  6EBA               	movwf	186,c	;volatile
  5134   002928  EFB8  F014         	goto	l4501
  5135   00292C                     l4495:
  5136   00292C  50BA               	movf	186,w,c	;volatile
  5137   00292E  0BF0               	andlw	-16
  5138   002930  090B               	iorlw	11
  5139   002932  6EBA               	movwf	186,c	;volatile
  5140   002934  EFB8  F014         	goto	l4501
  5141   002938                     l4499:
  5142   002938  5004               	movf	CCP_Compare_Mode_Config@_ccp_obj^0,w,c
  5143   00293A  6ED9               	movwf	fsr2l,c
  5144   00293C  6ADA               	clrf	fsr2h,c
  5145   00293E  0E02               	movlw	2
  5146   002940  26D9               	addwf	fsr2l,f,c
  5147   002942  50DF               	movf	indf2,w,c
  5148                           
  5149                           ; Switch size 1, requested type "simple"
  5150                           ; Number of cases is 5, Range of values is 2 to 11
  5151                           ; switch strategies available:
  5152                           ; Name         Instructions Cycles
  5153                           ; simple_byte           16     9 (average)
  5154                           ;	Chosen strategy is simple_byte
  5155   002944  0A02               	xorlw	2	; case 2
  5156   002946  B4D8               	btfsc	status,2,c
  5157   002948  EF8A  F014         	goto	l4491
  5158   00294C  0A0A               	xorlw	10	; case 8
  5159   00294E  B4D8               	btfsc	status,2,c
  5160   002950  EF7E  F014         	goto	l4487
  5161   002954  0A01               	xorlw	1	; case 9
  5162   002956  B4D8               	btfsc	status,2,c
  5163   002958  EF84  F014         	goto	l4489
  5164   00295C  0A03               	xorlw	3	; case 10
  5165   00295E  B4D8               	btfsc	status,2,c
  5166   002960  EF90  F014         	goto	l4493
  5167   002964  0A01               	xorlw	1	; case 11
  5168   002966  B4D8               	btfsc	status,2,c
  5169   002968  EF96  F014         	goto	l4495
  5170   00296C  EF51  F014         	goto	l4479
  5171   002970                     l4501:
  5172                           
  5173                           ;MCAL_Layer/CCP/hal_ccp.c: 480:     CCP_Mode_Timer_Select(_ccp_obj);
  5174   002970  C004  F002         	movff	CCP_Compare_Mode_Config@_ccp_obj,CCP_Mode_Timer_Select@_ccp_obj
  5175   002974  EC4E  F019         	call	_CCP_Mode_Timer_Select	;wreg free
  5176   002978                     
  5177                           ;MCAL_Layer/CCP/hal_ccp.c: 482:     return ret;
  5178   002978  5006               	movf	CCP_Compare_Mode_Config@ret^0,w,c
  5179   00297A  0012               	return		;funcret
  5180   00297C                     __end_of_CCP_Compare_Mode_Config:
  5181                           	callstack 0
  5182                           
  5183 ;; *************** function _CCP_Capture_Mode_Config *****************
  5184 ;; Defined at:
  5185 ;;		line 423 in file "MCAL_Layer/CCP/hal_ccp.c"
  5186 ;; Parameters:    Size  Location     Type
  5187 ;;  _ccp_obj        1    3[COMRAM] PTR const struct .
  5188 ;;		 -> ccp1_pwm(14), 
  5189 ;; Auto vars:     Size  Location     Type
  5190 ;;  ret             1    5[COMRAM] unsigned char 
  5191 ;; Return value:  Size  Location     Type
  5192 ;;                  1    wreg      unsigned char 
  5193 ;; Registers used:
  5194 ;;		wreg, fsr2l, fsr2h, status,2, status,0, cstack
  5195 ;; Tracked objects:
  5196 ;;		On entry : 0/0
  5197 ;;		On exit  : 0/0
  5198 ;;		Unchanged: 0/0
  5199 ;; Data sizes:     COMRAM   BANK0   BANK1   BANK2   BANK3   BANK4   BANK5   BANK6   BANK7   BANK8   BANK9  BANK10  BANK1
      +1  BANK12  BANK13  BANK14  BANK15
  5200 ;;      Params:         1       0       0       0       0       0       0       0       0       0       0       0       
      +0       0       0       0       0
  5201 ;;      Locals:         1       0       0       0       0       0       0       0       0       0       0       0       
      +0       0       0       0       0
  5202 ;;      Temps:          1       0       0       0       0       0       0       0       0       0       0       0       
      +0       0       0       0       0
  5203 ;;      Totals:         3       0       0       0       0       0       0       0       0       0       0       0       
      +0       0       0       0       0
  5204 ;;Total ram usage:        3 bytes
  5205 ;; Hardware stack levels used: 1
  5206 ;; Hardware stack levels required when called: 3
  5207 ;; This function calls:
  5208 ;;		_CCP_Mode_Timer_Select
  5209 ;; This function is called by:
  5210 ;;		_CCP_Init
  5211 ;; This function uses a non-reentrant model
  5212 ;;
  5213                           
  5214                           	psect	text20
  5215   002BA6                     __ptext20:
  5216                           	callstack 0
  5217   002BA6                     _CCP_Capture_Mode_Config:
  5218                           	callstack 24
  5219   002BA6                     
  5220                           ;MCAL_Layer/CCP/hal_ccp.c: 424:     Std_ReturnType ret = (Std_ReturnType)0x01;
  5221   002BA6  0E01               	movlw	1
  5222   002BA8  6E06               	movwf	CCP_Capture_Mode_Config@ret^0,c
  5223   002BAA                     
  5224                           ;MCAL_Layer/CCP/hal_ccp.c: 426:     if(CCP1_INST == _ccp_obj->ccp_inst){
  5225   002BAA  5004               	movf	CCP_Capture_Mode_Config@_ccp_obj^0,w,c
  5226   002BAC  6ED9               	movwf	fsr2l,c
  5227   002BAE  6ADA               	clrf	fsr2h,c
  5228   002BB0  50DF               	movf	indf2,w,c
  5229   002BB2  A4D8               	btfss	status,2,c
  5230   002BB4  EFDE  F015         	goto	u4201
  5231   002BB8  EFE0  F015         	goto	u4200
  5232   002BBC                     u4201:
  5233   002BBC  EF16  F016         	goto	l4441
  5234   002BC0                     u4200:
  5235   002BC0  EFFE  F015         	goto	l4439
  5236   002BC4                     l4429:
  5237   002BC4  50BD               	movf	189,w,c	;volatile
  5238   002BC6  0BF0               	andlw	-16
  5239   002BC8  0904               	iorlw	4
  5240   002BCA  6EBD               	movwf	189,c	;volatile
  5241   002BCC  EF53  F016         	goto	l4457
  5242   002BD0                     l4431:
  5243   002BD0  50BD               	movf	189,w,c	;volatile
  5244   002BD2  0BF0               	andlw	-16
  5245   002BD4  0905               	iorlw	5
  5246   002BD6  6EBD               	movwf	189,c	;volatile
  5247   002BD8  EF53  F016         	goto	l4457
  5248   002BDC                     l4433:
  5249   002BDC  50BD               	movf	189,w,c	;volatile
  5250   002BDE  0BF0               	andlw	-16
  5251   002BE0  0906               	iorlw	6
  5252   002BE2  6EBD               	movwf	189,c	;volatile
  5253   002BE4  EF53  F016         	goto	l4457
  5254   002BE8                     l4435:
  5255   002BE8  50BD               	movf	189,w,c	;volatile
  5256   002BEA  0BF0               	andlw	-16
  5257   002BEC  0907               	iorlw	7
  5258   002BEE  6EBD               	movwf	189,c	;volatile
  5259   002BF0  EF53  F016         	goto	l4457
  5260   002BF4                     l4437:
  5261   002BF4  0E00               	movlw	0
  5262   002BF6  6E06               	movwf	CCP_Capture_Mode_Config@ret^0,c
  5263                           
  5264                           ;MCAL_Layer/CCP/hal_ccp.c: 434:         }
  5265   002BF8  EF53  F016         	goto	l4457
  5266   002BFC                     l4439:
  5267   002BFC  5004               	movf	CCP_Capture_Mode_Config@_ccp_obj^0,w,c
  5268   002BFE  6ED9               	movwf	fsr2l,c
  5269   002C00  6ADA               	clrf	fsr2h,c
  5270   002C02  0E02               	movlw	2
  5271   002C04  26D9               	addwf	fsr2l,f,c
  5272   002C06  50DF               	movf	indf2,w,c
  5273                           
  5274                           ; Switch size 1, requested type "simple"
  5275                           ; Number of cases is 4, Range of values is 4 to 7
  5276                           ; switch strategies available:
  5277                           ; Name         Instructions Cycles
  5278                           ; simple_byte           13     7 (average)
  5279                           ;	Chosen strategy is simple_byte
  5280   002C08  0A04               	xorlw	4	; case 4
  5281   002C0A  B4D8               	btfsc	status,2,c
  5282   002C0C  EFE2  F015         	goto	l4429
  5283   002C10  0A01               	xorlw	1	; case 5
  5284   002C12  B4D8               	btfsc	status,2,c
  5285   002C14  EFE8  F015         	goto	l4431
  5286   002C18  0A03               	xorlw	3	; case 6
  5287   002C1A  B4D8               	btfsc	status,2,c
  5288   002C1C  EFEE  F015         	goto	l4433
  5289   002C20  0A01               	xorlw	1	; case 7
  5290   002C22  B4D8               	btfsc	status,2,c
  5291   002C24  EFF4  F015         	goto	l4435
  5292   002C28  EFFA  F015         	goto	l4437
  5293   002C2C                     l4441:
  5294   002C2C  5004               	movf	CCP_Capture_Mode_Config@_ccp_obj^0,w,c
  5295   002C2E  6ED9               	movwf	fsr2l,c
  5296   002C30  6ADA               	clrf	fsr2h,c
  5297   002C32  04DE               	decf	postinc2,w,c
  5298   002C34  A4D8               	btfss	status,2,c
  5299   002C36  EF1F  F016         	goto	u4211
  5300   002C3A  EF21  F016         	goto	u4210
  5301   002C3E                     u4211:
  5302   002C3E  EF53  F016         	goto	l4457
  5303   002C42                     u4210:
  5304   002C42  EF3B  F016         	goto	l4455
  5305   002C46                     l4445:
  5306   002C46  50BA               	movf	186,w,c	;volatile
  5307   002C48  0BF0               	andlw	-16
  5308   002C4A  0904               	iorlw	4
  5309   002C4C  6EBA               	movwf	186,c	;volatile
  5310   002C4E  EF53  F016         	goto	l4457
  5311   002C52                     l4447:
  5312   002C52  50BA               	movf	186,w,c	;volatile
  5313   002C54  0BF0               	andlw	-16
  5314   002C56  0905               	iorlw	5
  5315   002C58  6EBA               	movwf	186,c	;volatile
  5316   002C5A  EF53  F016         	goto	l4457
  5317   002C5E                     l4449:
  5318   002C5E  50BA               	movf	186,w,c	;volatile
  5319   002C60  0BF0               	andlw	-16
  5320   002C62  0906               	iorlw	6
  5321   002C64  6EBA               	movwf	186,c	;volatile
  5322   002C66  EF53  F016         	goto	l4457
  5323   002C6A                     l4451:
  5324   002C6A  50BA               	movf	186,w,c	;volatile
  5325   002C6C  0BF0               	andlw	-16
  5326   002C6E  0907               	iorlw	7
  5327   002C70  6EBA               	movwf	186,c	;volatile
  5328   002C72  EF53  F016         	goto	l4457
  5329   002C76                     l4455:
  5330   002C76  5004               	movf	CCP_Capture_Mode_Config@_ccp_obj^0,w,c
  5331   002C78  6ED9               	movwf	fsr2l,c
  5332   002C7A  6ADA               	clrf	fsr2h,c
  5333   002C7C  0E02               	movlw	2
  5334   002C7E  26D9               	addwf	fsr2l,f,c
  5335   002C80  50DF               	movf	indf2,w,c
  5336                           
  5337                           ; Switch size 1, requested type "simple"
  5338                           ; Number of cases is 4, Range of values is 4 to 7
  5339                           ; switch strategies available:
  5340                           ; Name         Instructions Cycles
  5341                           ; simple_byte           13     7 (average)
  5342                           ;	Chosen strategy is simple_byte
  5343   002C82  0A04               	xorlw	4	; case 4
  5344   002C84  B4D8               	btfsc	status,2,c
  5345   002C86  EF23  F016         	goto	l4445
  5346   002C8A  0A01               	xorlw	1	; case 5
  5347   002C8C  B4D8               	btfsc	status,2,c
  5348   002C8E  EF29  F016         	goto	l4447
  5349   002C92  0A03               	xorlw	3	; case 6
  5350   002C94  B4D8               	btfsc	status,2,c
  5351   002C96  EF2F  F016         	goto	l4449
  5352   002C9A  0A01               	xorlw	1	; case 7
  5353   002C9C  B4D8               	btfsc	status,2,c
  5354   002C9E  EF35  F016         	goto	l4451
  5355   002CA2  EFFA  F015         	goto	l4437
  5356   002CA6                     l4457:
  5357                           
  5358                           ;MCAL_Layer/CCP/hal_ccp.c: 448:     CCP_Mode_Timer_Select(_ccp_obj);
  5359   002CA6  C004  F002         	movff	CCP_Capture_Mode_Config@_ccp_obj,CCP_Mode_Timer_Select@_ccp_obj
  5360   002CAA  EC4E  F019         	call	_CCP_Mode_Timer_Select	;wreg free
  5361   002CAE                     
  5362                           ;MCAL_Layer/CCP/hal_ccp.c: 450:     return ret;
  5363   002CAE  5006               	movf	CCP_Capture_Mode_Config@ret^0,w,c
  5364   002CB0  0012               	return		;funcret
  5365   002CB2                     __end_of_CCP_Capture_Mode_Config:
  5366                           	callstack 0
  5367                           
  5368 ;; *************** function _CCP_Mode_Timer_Select *****************
  5369 ;; Defined at:
  5370 ;;		line 403 in file "MCAL_Layer/CCP/hal_ccp.c"
  5371 ;; Parameters:    Size  Location     Type
  5372 ;;  _ccp_obj        1    1[COMRAM] PTR const struct .
  5373 ;;		 -> ccp1_pwm(14), 
  5374 ;; Auto vars:     Size  Location     Type
  5375 ;;		None
  5376 ;; Return value:  Size  Location     Type
  5377 ;;                  1    wreg      void 
  5378 ;; Registers used:
  5379 ;;		wreg, fsr2l, fsr2h, status,2, status,0
  5380 ;; Tracked objects:
  5381 ;;		On entry : 0/0
  5382 ;;		On exit  : 0/0
  5383 ;;		Unchanged: 0/0
  5384 ;; Data sizes:     COMRAM   BANK0   BANK1   BANK2   BANK3   BANK4   BANK5   BANK6   BANK7   BANK8   BANK9  BANK10  BANK1
      +1  BANK12  BANK13  BANK14  BANK15
  5385 ;;      Params:         1       0       0       0       0       0       0       0       0       0       0       0       
      +0       0       0       0       0
  5386 ;;      Locals:         0       0       0       0       0       0       0       0       0       0       0       0       
      +0       0       0       0       0
  5387 ;;      Temps:          1       0       0       0       0       0       0       0       0       0       0       0       
      +0       0       0       0       0
  5388 ;;      Totals:         2       0       0       0       0       0       0       0       0       0       0       0       
      +0       0       0       0       0
  5389 ;;Total ram usage:        2 bytes
  5390 ;; Hardware stack levels used: 1
  5391 ;; Hardware stack levels required when called: 2
  5392 ;; This function calls:
  5393 ;;		Nothing
  5394 ;; This function is called by:
  5395 ;;		_CCP_Capture_Mode_Config
  5396 ;;		_CCP_Compare_Mode_Config
  5397 ;; This function uses a non-reentrant model
  5398 ;;
  5399                           
  5400                           	psect	text21
  5401   00329C                     __ptext21:
  5402                           	callstack 0
  5403   00329C                     _CCP_Mode_Timer_Select:
  5404                           	callstack 24
  5405   00329C                     
  5406                           ;MCAL_Layer/CCP/hal_ccp.c: 404:     if(CCP1_CCP2_TIMER3 == _ccp_obj->ccp_capture_timer){
  5407   00329C  5002               	movf	CCP_Mode_Timer_Select@_ccp_obj^0,w,c
  5408   00329E  6ED9               	movwf	fsr2l,c
  5409   0032A0  6ADA               	clrf	fsr2h,c
  5410   0032A2  0E04               	movlw	4
  5411   0032A4  26D9               	addwf	fsr2l,f,c
  5412   0032A6  50DF               	movf	indf2,w,c
  5413   0032A8  A4D8               	btfss	status,2,c
  5414   0032AA  EF59  F019         	goto	u3121
  5415   0032AE  EF5B  F019         	goto	u3120
  5416   0032B2                     u3121:
  5417   0032B2  EF5F  F019         	goto	l3823
  5418   0032B6                     u3120:
  5419   0032B6                     
  5420                           ;MCAL_Layer/CCP/hal_ccp.c: 406:         T3CONbits.T3CCP1 = 0;
  5421   0032B6  96B1               	bcf	177,3,c	;volatile
  5422                           
  5423                           ;MCAL_Layer/CCP/hal_ccp.c: 407:         T3CONbits.T3CCP2 = 1;
  5424   0032B8  8CB1               	bsf	177,6,c	;volatile
  5425                           
  5426                           ;MCAL_Layer/CCP/hal_ccp.c: 408:     }
  5427   0032BA  EF82  F019         	goto	l294
  5428   0032BE                     l3823:
  5429   0032BE  5002               	movf	CCP_Mode_Timer_Select@_ccp_obj^0,w,c
  5430   0032C0  6ED9               	movwf	fsr2l,c
  5431   0032C2  6ADA               	clrf	fsr2h,c
  5432   0032C4  0E04               	movlw	4
  5433   0032C6  26D9               	addwf	fsr2l,f,c
  5434   0032C8  04DE               	decf	postinc2,w,c
  5435   0032CA  A4D8               	btfss	status,2,c
  5436   0032CC  EF6A  F019         	goto	u3131
  5437   0032D0  EF6C  F019         	goto	u3130
  5438   0032D4                     u3131:
  5439   0032D4  EF70  F019         	goto	l3827
  5440   0032D8                     u3130:
  5441   0032D8                     
  5442                           ;MCAL_Layer/CCP/hal_ccp.c: 412:         T3CONbits.T3CCP1 = 1;
  5443   0032D8  86B1               	bsf	177,3,c	;volatile
  5444                           
  5445                           ;MCAL_Layer/CCP/hal_ccp.c: 413:         T3CONbits.T3CCP2 = 0;
  5446   0032DA  9CB1               	bcf	177,6,c	;volatile
  5447                           
  5448                           ;MCAL_Layer/CCP/hal_ccp.c: 414:     }
  5449   0032DC  EF82  F019         	goto	l294
  5450   0032E0                     l3827:
  5451   0032E0  5002               	movf	CCP_Mode_Timer_Select@_ccp_obj^0,w,c
  5452   0032E2  6ED9               	movwf	fsr2l,c
  5453   0032E4  6ADA               	clrf	fsr2h,c
  5454   0032E6  0E04               	movlw	4
  5455   0032E8  26D9               	addwf	fsr2l,f,c
  5456   0032EA  0E02               	movlw	2
  5457   0032EC  18DE               	xorwf	postinc2,w,c
  5458   0032EE  A4D8               	btfss	status,2,c
  5459   0032F0  EF7C  F019         	goto	u3141
  5460   0032F4  EF7E  F019         	goto	u3140
  5461   0032F8                     u3141:
  5462   0032F8  EF82  F019         	goto	l291
  5463   0032FC                     u3140:
  5464   0032FC                     
  5465                           ;MCAL_Layer/CCP/hal_ccp.c: 417:         T3CONbits.T3CCP1 = 0;
  5466   0032FC  96B1               	bcf	177,3,c	;volatile
  5467                           
  5468                           ;MCAL_Layer/CCP/hal_ccp.c: 418:         T3CONbits.T3CCP2 = 0;
  5469   0032FE  9CB1               	bcf	177,6,c	;volatile
  5470                           
  5471                           ;MCAL_Layer/CCP/hal_ccp.c: 419:     }
  5472   003300  EF82  F019         	goto	l294
  5473   003304                     l291:
  5474   003304                     l294:
  5475   003304  0012               	return		;funcret
  5476   003306                     __end_of_CCP_Mode_Timer_Select:
  5477                           	callstack 0
  5478                           
  5479 ;; *************** function _ecu_layer_initialize *****************
  5480 ;; Defined at:
  5481 ;;		line 23 in file "ECU_Layer/ecu_layer_initialize.c"
  5482 ;; Parameters:    Size  Location     Type
  5483 ;;		None
  5484 ;; Auto vars:     Size  Location     Type
  5485 ;;  retVal          1    0        unsigned char 
  5486 ;; Return value:  Size  Location     Type
  5487 ;;                  1    wreg      void 
  5488 ;; Registers used:
  5489 ;;		wreg, fsr2l, fsr2h, status,2, status,0, prodl, prodh, cstack
  5490 ;; Tracked objects:
  5491 ;;		On entry : 0/0
  5492 ;;		On exit  : 0/0
  5493 ;;		Unchanged: 0/0
  5494 ;; Data sizes:     COMRAM   BANK0   BANK1   BANK2   BANK3   BANK4   BANK5   BANK6   BANK7   BANK8   BANK9  BANK10  BANK1
      +1  BANK12  BANK13  BANK14  BANK15
  5495 ;;      Params:         0       0       0       0       0       0       0       0       0       0       0       0       
      +0       0       0       0       0
  5496 ;;      Locals:         0       0       0       0       0       0       0       0       0       0       0       0       
      +0       0       0       0       0
  5497 ;;      Temps:          0       0       0       0       0       0       0       0       0       0       0       0       
      +0       0       0       0       0
  5498 ;;      Totals:         0       0       0       0       0       0       0       0       0       0       0       0       
      +0       0       0       0       0
  5499 ;;Total ram usage:        0 bytes
  5500 ;; Hardware stack levels used: 1
  5501 ;; Hardware stack levels required when called: 5
  5502 ;; This function calls:
  5503 ;;		_led_initialize
  5504 ;; This function is called by:
  5505 ;;		_application_initialize
  5506 ;; This function uses a non-reentrant model
  5507 ;;
  5508                           
  5509                           	psect	text22
  5510   0035AA                     __ptext22:
  5511                           	callstack 0
  5512   0035AA                     _ecu_layer_initialize:
  5513                           	callstack 24
  5514   0035AA  0E7D               	movlw	low _led_1
  5515   0035AC  6E0D               	movwf	led_initialize@led^0,c
  5516   0035AE  ECA8  F018         	call	_led_initialize	;wreg free
  5517   0035B2  0E7C               	movlw	low _buzzer
  5518   0035B4  6E0D               	movwf	led_initialize@led^0,c
  5519   0035B6  ECA8  F018         	call	_led_initialize	;wreg free
  5520   0035BA  0012               	return		;funcret
  5521   0035BC                     __end_of_ecu_layer_initialize:
  5522                           	callstack 0
  5523                           
  5524 ;; *************** function _led_initialize *****************
  5525 ;; Defined at:
  5526 ;;		line 17 in file "ECU_Layer/LED/ecu_led.c"
  5527 ;; Parameters:    Size  Location     Type
  5528 ;;  led             1   12[COMRAM] PTR const struct .
  5529 ;;		 -> buzzer(1), led_1(1), 
  5530 ;; Auto vars:     Size  Location     Type
  5531 ;;  pin_obj         1   15[COMRAM] struct .
  5532 ;;  retVal          1   14[COMRAM] unsigned char 
  5533 ;; Return value:  Size  Location     Type
  5534 ;;                  1    wreg      unsigned char 
  5535 ;; Registers used:
  5536 ;;		wreg, fsr2l, fsr2h, status,2, status,0, prodl, prodh, cstack
  5537 ;; Tracked objects:
  5538 ;;		On entry : 0/0
  5539 ;;		On exit  : 0/0
  5540 ;;		Unchanged: 0/0
  5541 ;; Data sizes:     COMRAM   BANK0   BANK1   BANK2   BANK3   BANK4   BANK5   BANK6   BANK7   BANK8   BANK9  BANK10  BANK1
      +1  BANK12  BANK13  BANK14  BANK15
  5542 ;;      Params:         1       0       0       0       0       0       0       0       0       0       0       0       
      +0       0       0       0       0
  5543 ;;      Locals:         2       0       0       0       0       0       0       0       0       0       0       0       
      +0       0       0       0       0
  5544 ;;      Temps:          1       0       0       0       0       0       0       0       0       0       0       0       
      +0       0       0       0       0
  5545 ;;      Totals:         4       0       0       0       0       0       0       0       0       0       0       0       
      +0       0       0       0       0
  5546 ;;Total ram usage:        4 bytes
  5547 ;; Hardware stack levels used: 1
  5548 ;; Hardware stack levels required when called: 4
  5549 ;; This function calls:
  5550 ;;		_gpio_pin_initialize
  5551 ;; This function is called by:
  5552 ;;		_ecu_layer_initialize
  5553 ;; This function uses a non-reentrant model
  5554 ;;
  5555                           
  5556                           	psect	text23
  5557   003150                     __ptext23:
  5558                           	callstack 0
  5559   003150                     _led_initialize:
  5560                           	callstack 24
  5561   003150                     
  5562                           ;ECU_Layer/LED/ecu_led.c: 19:     if(((void*)0) == led){
  5563   003150  500D               	movf	led_initialize@led^0,w,c
  5564   003152  A4D8               	btfss	status,2,c
  5565   003154  EFAE  F018         	goto	u4411
  5566   003158  EFB0  F018         	goto	u4410
  5567   00315C                     u4411:
  5568   00315C  EFB4  F018         	goto	l9
  5569   003160                     u4410:
  5570   003160                     
  5571                           ;ECU_Layer/LED/ecu_led.c: 20:         retVal = (Std_ReturnType)0x00;
  5572   003160  0E00               	movlw	0
  5573   003162  6E0F               	movwf	led_initialize@retVal^0,c
  5574                           
  5575                           ;ECU_Layer/LED/ecu_led.c: 21:     }else{
  5576   003164  EFE0  F018         	goto	l4663
  5577   003168                     l9:
  5578                           
  5579                           ;ECU_Layer/LED/ecu_led.c: 22:         pin_config_t pin_obj = {.port = led->port,
  5580   003168  C076  F010         	movff	led_initialize@F3067,led_initialize@pin_obj
  5581   00316C  500D               	movf	led_initialize@led^0,w,c
  5582   00316E  6ED9               	movwf	fsr2l,c
  5583   003170  6ADA               	clrf	fsr2h,c
  5584   003172  50DF               	movf	223,w,c
  5585   003174  0B07               	andlw	7
  5586   003176  6E0E               	movwf	??_led_initialize^0,c
  5587   003178  5010               	movf	led_initialize@pin_obj^0,w,c
  5588   00317A  180E               	xorwf	??_led_initialize^0,w,c
  5589   00317C  0BF8               	andlw	-8
  5590   00317E  180E               	xorwf	??_led_initialize^0,w,c
  5591   003180  6E10               	movwf	led_initialize@pin_obj^0,c
  5592   003182  500D               	movf	led_initialize@led^0,w,c
  5593   003184  6ED9               	movwf	fsr2l,c
  5594   003186  6ADA               	clrf	fsr2h,c
  5595   003188  30DF               	rrcf	223,w,c
  5596   00318A  32E8               	rrcf	wreg,f,c
  5597   00318C  32E8               	rrcf	wreg,f,c
  5598   00318E  0B07               	andlw	7
  5599   003190  6E0E               	movwf	??_led_initialize^0,c
  5600   003192  460E               	rlncf	??_led_initialize^0,f,c
  5601   003194  460E               	rlncf	??_led_initialize^0,f,c
  5602   003196  460E               	rlncf	??_led_initialize^0,f,c
  5603   003198  5010               	movf	led_initialize@pin_obj^0,w,c
  5604   00319A  180E               	xorwf	??_led_initialize^0,w,c
  5605   00319C  0BC7               	andlw	-57
  5606   00319E  180E               	xorwf	??_led_initialize^0,w,c
  5607   0031A0  6E10               	movwf	led_initialize@pin_obj^0,c
  5608   0031A2  500D               	movf	led_initialize@led^0,w,c
  5609   0031A4  6ED9               	movwf	fsr2l,c
  5610   0031A6  6ADA               	clrf	fsr2h,c
  5611   0031A8  ACDF               	btfss	indf2,6,c
  5612   0031AA  D002               	bra	u4425
  5613   0031AC  8C10               	bsf	led_initialize@pin_obj^0,6,c
  5614   0031AE  D001               	bra	u4427
  5615   0031B0                     u4425:
  5616   0031B0  9C10               	bcf	led_initialize@pin_obj^0,6,c
  5617   0031B2                     u4427:
  5618   0031B2  9E10               	bcf	led_initialize@pin_obj^0,7,c
  5619   0031B4                     
  5620                           ;ECU_Layer/LED/ecu_led.c: 27:         gpio_pin_initialize(&pin_obj);
  5621   0031B4  0E10               	movlw	low led_initialize@pin_obj
  5622   0031B6  6E0A               	movwf	gpio_pin_initialize@config^0,c
  5623   0031B8  ECB6  F019         	call	_gpio_pin_initialize	;wreg free
  5624   0031BC                     
  5625                           ;ECU_Layer/LED/ecu_led.c: 28:         retVal = (Std_ReturnType)0x01;
  5626   0031BC  0E01               	movlw	1
  5627   0031BE  6E0F               	movwf	led_initialize@retVal^0,c
  5628   0031C0                     l4663:
  5629                           
  5630                           ;ECU_Layer/LED/ecu_led.c: 30:     return retVal;
  5631   0031C0  500F               	movf	led_initialize@retVal^0,w,c
  5632   0031C2  0012               	return		;funcret
  5633   0031C4                     __end_of_led_initialize:
  5634                           	callstack 0
  5635                           
  5636 ;; *************** function _gpio_pin_initialize *****************
  5637 ;; Defined at:
  5638 ;;		line 145 in file "MCAL_Layer/GPIO/hal_gpio.c"
  5639 ;; Parameters:    Size  Location     Type
  5640 ;;  config          1    9[COMRAM] PTR const struct .
  5641 ;;		 -> ccp1_pwm(14), led_initialize@pin_obj(1), 
  5642 ;; Auto vars:     Size  Location     Type
  5643 ;;  retVal          1   11[COMRAM] unsigned char 
  5644 ;; Return value:  Size  Location     Type
  5645 ;;                  1    wreg      unsigned char 
  5646 ;; Registers used:
  5647 ;;		wreg, fsr2l, fsr2h, status,2, status,0, prodl, prodh, cstack
  5648 ;; Tracked objects:
  5649 ;;		On entry : 0/0
  5650 ;;		On exit  : 0/0
  5651 ;;		Unchanged: 0/0
  5652 ;; Data sizes:     COMRAM   BANK0   BANK1   BANK2   BANK3   BANK4   BANK5   BANK6   BANK7   BANK8   BANK9  BANK10  BANK1
      +1  BANK12  BANK13  BANK14  BANK15
  5653 ;;      Params:         1       0       0       0       0       0       0       0       0       0       0       0       
      +0       0       0       0       0
  5654 ;;      Locals:         1       0       0       0       0       0       0       0       0       0       0       0       
      +0       0       0       0       0
  5655 ;;      Temps:          1       0       0       0       0       0       0       0       0       0       0       0       
      +0       0       0       0       0
  5656 ;;      Totals:         3       0       0       0       0       0       0       0       0       0       0       0       
      +0       0       0       0       0
  5657 ;;Total ram usage:        3 bytes
  5658 ;; Hardware stack levels used: 1
  5659 ;; Hardware stack levels required when called: 3
  5660 ;; This function calls:
  5661 ;;		_gpio_pin_direction_initialize
  5662 ;;		_gpio_pin_write_logic
  5663 ;; This function is called by:
  5664 ;;		_led_initialize
  5665 ;;		_CCP_Init
  5666 ;;		_Interrupt_INTx_Pin_Init
  5667 ;;		_Interrupt_RBx_Pin_Init
  5668 ;; This function uses a non-reentrant model
  5669 ;;
  5670                           
  5671                           	psect	text24
  5672   00336C                     __ptext24:
  5673                           	callstack 0
  5674   00336C                     _gpio_pin_initialize:
  5675                           	callstack 24
  5676   00336C                     
  5677                           ;MCAL_Layer/GPIO/hal_gpio.c: 147:     if((((void*)0) == config) || (config->pin > 8 -1))
  5678   00336C  500A               	movf	gpio_pin_initialize@config^0,w,c
  5679   00336E  B4D8               	btfsc	status,2,c
  5680   003370  EFBC  F019         	goto	u4181
  5681   003374  EFBE  F019         	goto	u4180
  5682   003378                     u4181:
  5683   003378  EFCE  F019         	goto	l4413
  5684   00337C                     u4180:
  5685   00337C  500A               	movf	gpio_pin_initialize@config^0,w,c
  5686   00337E  6ED9               	movwf	fsr2l,c
  5687   003380  6ADA               	clrf	fsr2h,c
  5688   003382  30DF               	rrcf	223,w,c
  5689   003384  32E8               	rrcf	wreg,f,c
  5690   003386  32E8               	rrcf	wreg,f,c
  5691   003388  0B07               	andlw	7
  5692   00338A  6E0B               	movwf	??_gpio_pin_initialize^0,c
  5693   00338C  0E07               	movlw	7
  5694   00338E  640B               	cpfsgt	??_gpio_pin_initialize^0,c
  5695   003390  EFCC  F019         	goto	u4191
  5696   003394  EFCE  F019         	goto	u4190
  5697   003398                     u4191:
  5698   003398  EFD2  F019         	goto	l4415
  5699   00339C                     u4190:
  5700   00339C                     l4413:
  5701                           
  5702                           ;MCAL_Layer/GPIO/hal_gpio.c: 148:     {;MCAL_Layer/GPIO/hal_gpio.c: 149:         retVal 
      +                          = (Std_ReturnType)0x00;
  5703   00339C  0E00               	movlw	0
  5704   00339E  6E0C               	movwf	gpio_pin_initialize@retVal^0,c
  5705                           
  5706                           ;MCAL_Layer/GPIO/hal_gpio.c: 150:     }else{
  5707   0033A0  EFE5  F019         	goto	l4419
  5708   0033A4                     l4415:
  5709                           
  5710                           ;MCAL_Layer/GPIO/hal_gpio.c: 151:         retVal = gpio_pin_direction_initialize(config)
      +                          ;
  5711   0033A4  C00A  F002         	movff	gpio_pin_initialize@config,gpio_pin_direction_initialize@config
  5712   0033A8  ECBE  F014         	call	_gpio_pin_direction_initialize	;wreg free
  5713   0033AC  6E0C               	movwf	gpio_pin_initialize@retVal^0,c
  5714                           
  5715                           ;MCAL_Layer/GPIO/hal_gpio.c: 152:         retVal = gpio_pin_write_logic(config , config-
      +                          >logic);
  5716   0033AE  C00A  F002         	movff	gpio_pin_initialize@config,gpio_pin_write_logic@config
  5717   0033B2  500A               	movf	gpio_pin_initialize@config^0,w,c
  5718   0033B4  6ED9               	movwf	fsr2l,c
  5719   0033B6  6ADA               	clrf	fsr2h,c
  5720   0033B8  0E00               	movlw	0
  5721   0033BA  BCDF               	btfsc	indf2,6,c
  5722   0033BC  0E01               	movlw	1
  5723   0033BE  6E03               	movwf	gpio_pin_write_logic@logic_status^0,c
  5724   0033C0  EC49  F015         	call	_gpio_pin_write_logic	;wreg free
  5725   0033C4  6E0C               	movwf	gpio_pin_initialize@retVal^0,c
  5726   0033C6                     
  5727                           ;MCAL_Layer/GPIO/hal_gpio.c: 153:         retVal = (Std_ReturnType)0x01;
  5728   0033C6  0E01               	movlw	1
  5729   0033C8  6E0C               	movwf	gpio_pin_initialize@retVal^0,c
  5730   0033CA                     l4419:
  5731                           
  5732                           ;MCAL_Layer/GPIO/hal_gpio.c: 155:     return retVal;
  5733   0033CA  500C               	movf	gpio_pin_initialize@retVal^0,w,c
  5734   0033CC  0012               	return		;funcret
  5735   0033CE                     __end_of_gpio_pin_initialize:
  5736                           	callstack 0
  5737                           
  5738 ;; *************** function _gpio_pin_write_logic *****************
  5739 ;; Defined at:
  5740 ;;		line 76 in file "MCAL_Layer/GPIO/hal_gpio.c"
  5741 ;; Parameters:    Size  Location     Type
  5742 ;;  config          1    1[COMRAM] PTR const struct .
  5743 ;;		 -> ccp1_pwm(14), led_turn_off@pin_obj(1), led_turn_on@pin_obj(1), led_initialize@pin_obj(1), 
  5744 ;;  logic_status    1    2[COMRAM] enum E2986
  5745 ;; Auto vars:     Size  Location     Type
  5746 ;;  retVal          1    8[COMRAM] unsigned char 
  5747 ;; Return value:  Size  Location     Type
  5748 ;;                  1    wreg      unsigned char 
  5749 ;; Registers used:
  5750 ;;		wreg, fsr2l, fsr2h, status,2, status,0, prodl, prodh
  5751 ;; Tracked objects:
  5752 ;;		On entry : 0/0
  5753 ;;		On exit  : 0/0
  5754 ;;		Unchanged: 0/0
  5755 ;; Data sizes:     COMRAM   BANK0   BANK1   BANK2   BANK3   BANK4   BANK5   BANK6   BANK7   BANK8   BANK9  BANK10  BANK1
      +1  BANK12  BANK13  BANK14  BANK15
  5756 ;;      Params:         2       0       0       0       0       0       0       0       0       0       0       0       
      +0       0       0       0       0
  5757 ;;      Locals:         1       0       0       0       0       0       0       0       0       0       0       0       
      +0       0       0       0       0
  5758 ;;      Temps:          5       0       0       0       0       0       0       0       0       0       0       0       
      +0       0       0       0       0
  5759 ;;      Totals:         8       0       0       0       0       0       0       0       0       0       0       0       
      +0       0       0       0       0
  5760 ;;Total ram usage:        8 bytes
  5761 ;; Hardware stack levels used: 1
  5762 ;; Hardware stack levels required when called: 2
  5763 ;; This function calls:
  5764 ;;		Nothing
  5765 ;; This function is called by:
  5766 ;;		_led_turn_off
  5767 ;;		_gpio_pin_initialize
  5768 ;;		_led_turn_on
  5769 ;; This function uses a non-reentrant model
  5770 ;;
  5771                           
  5772                           	psect	text25
  5773   002A92                     __ptext25:
  5774                           	callstack 0
  5775   002A92                     _gpio_pin_write_logic:
  5776                           	callstack 27
  5777   002A92                     
  5778                           ;MCAL_Layer/GPIO/hal_gpio.c: 78:     if((((void*)0) == config) || (config->pin > 8 -1))
  5779   002A92  5002               	movf	gpio_pin_write_logic@config^0,w,c
  5780   002A94  B4D8               	btfsc	status,2,c
  5781   002A96  EF4F  F015         	goto	u3081
  5782   002A9A  EF51  F015         	goto	u3080
  5783   002A9E                     u3081:
  5784   002A9E  EF61  F015         	goto	l3801
  5785   002AA2                     u3080:
  5786   002AA2  5002               	movf	gpio_pin_write_logic@config^0,w,c
  5787   002AA4  6ED9               	movwf	fsr2l,c
  5788   002AA6  6ADA               	clrf	fsr2h,c
  5789   002AA8  30DF               	rrcf	223,w,c
  5790   002AAA  32E8               	rrcf	wreg,f,c
  5791   002AAC  32E8               	rrcf	wreg,f,c
  5792   002AAE  0B07               	andlw	7
  5793   002AB0  6E04               	movwf	??_gpio_pin_write_logic^0,c
  5794   002AB2  0E07               	movlw	7
  5795   002AB4  6404               	cpfsgt	??_gpio_pin_write_logic^0,c
  5796   002AB6  EF5F  F015         	goto	u3091
  5797   002ABA  EF61  F015         	goto	u3090
  5798   002ABE                     u3091:
  5799   002ABE  EFBA  F015         	goto	l3809
  5800   002AC2                     u3090:
  5801   002AC2                     l3801:
  5802                           
  5803                           ;MCAL_Layer/GPIO/hal_gpio.c: 79:     {;MCAL_Layer/GPIO/hal_gpio.c: 80:         retVal = 
      +                          (Std_ReturnType)0x00;
  5804   002AC2  0E00               	movlw	0
  5805   002AC4  6E09               	movwf	gpio_pin_write_logic@retVal^0,c
  5806                           
  5807                           ;MCAL_Layer/GPIO/hal_gpio.c: 81:     }else{
  5808   002AC6  EFD1  F015         	goto	l562
  5809   002ACA                     l3803:
  5810                           
  5811                           ;MCAL_Layer/GPIO/hal_gpio.c: 84:                 (*lat_registers[config->port] &=~(((uin
      +                          t8)1<<config->pin)));
  5812   002ACA  5002               	movf	gpio_pin_write_logic@config^0,w,c
  5813   002ACC  6ED9               	movwf	fsr2l,c
  5814   002ACE  6ADA               	clrf	fsr2h,c
  5815   002AD0  30DF               	rrcf	223,w,c
  5816   002AD2  32E8               	rrcf	wreg,f,c
  5817   002AD4  32E8               	rrcf	wreg,f,c
  5818   002AD6  0B07               	andlw	7
  5819   002AD8  6E04               	movwf	??_gpio_pin_write_logic^0,c
  5820   002ADA  0E01               	movlw	1
  5821   002ADC  6E05               	movwf	(??_gpio_pin_write_logic+1)^0,c
  5822   002ADE  2A04               	incf	??_gpio_pin_write_logic^0,f,c
  5823   002AE0  EF74  F015         	goto	u3104
  5824   002AE4                     u3105:
  5825   002AE4  90D8               	bcf	status,0,c
  5826   002AE6  3605               	rlcf	(??_gpio_pin_write_logic+1)^0,f,c
  5827   002AE8                     u3104:
  5828   002AE8  2E04               	decfsz	??_gpio_pin_write_logic^0,f,c
  5829   002AEA  EF72  F015         	goto	u3105
  5830   002AEE  5005               	movf	(??_gpio_pin_write_logic+1)^0,w,c
  5831   002AF0  0AFF               	xorlw	255
  5832   002AF2  6E06               	movwf	(??_gpio_pin_write_logic+2)^0,c
  5833   002AF4  5002               	movf	gpio_pin_write_logic@config^0,w,c
  5834   002AF6  6ED9               	movwf	fsr2l,c
  5835   002AF8  6ADA               	clrf	fsr2h,c
  5836   002AFA  50DF               	movf	223,w,c
  5837   002AFC  0B07               	andlw	7
  5838   002AFE  0D02               	mullw	2
  5839   002B00  50F3               	movf	243,w,c
  5840   002B02  0F8A               	addlw	low _lat_registers
  5841   002B04  6ED9               	movwf	fsr2l,c
  5842   002B06  6ADA               	clrf	fsr2h,c
  5843   002B08  CFDE F007          	movff	postinc2,??_gpio_pin_write_logic+3
  5844   002B0C  CFDD F008          	movff	postdec2,??_gpio_pin_write_logic+4
  5845   002B10  C007  FFD9         	movff	??_gpio_pin_write_logic+3,fsr2l
  5846   002B14  C008  FFDA         	movff	??_gpio_pin_write_logic+4,fsr2h
  5847   002B18  5006               	movf	(??_gpio_pin_write_logic+2)^0,w,c
  5848   002B1A  16DF               	andwf	indf2,f,c
  5849                           
  5850                           ;MCAL_Layer/GPIO/hal_gpio.c: 85:                 break;
  5851   002B1C  EFCF  F015         	goto	l3811
  5852   002B20                     l3805:
  5853                           
  5854                           ;MCAL_Layer/GPIO/hal_gpio.c: 87:                 (*lat_registers[config->port] |=((uint8
      +                          )1<<config->pin));
  5855   002B20  5002               	movf	gpio_pin_write_logic@config^0,w,c
  5856   002B22  6ED9               	movwf	fsr2l,c
  5857   002B24  6ADA               	clrf	fsr2h,c
  5858   002B26  30DF               	rrcf	223,w,c
  5859   002B28  32E8               	rrcf	wreg,f,c
  5860   002B2A  32E8               	rrcf	wreg,f,c
  5861   002B2C  0B07               	andlw	7
  5862   002B2E  6E04               	movwf	??_gpio_pin_write_logic^0,c
  5863   002B30  0E01               	movlw	1
  5864   002B32  6E05               	movwf	(??_gpio_pin_write_logic+1)^0,c
  5865   002B34  2A04               	incf	??_gpio_pin_write_logic^0,f,c
  5866   002B36  EF9F  F015         	goto	u3114
  5867   002B3A                     u3115:
  5868   002B3A  90D8               	bcf	status,0,c
  5869   002B3C  3605               	rlcf	(??_gpio_pin_write_logic+1)^0,f,c
  5870   002B3E                     u3114:
  5871   002B3E  2E04               	decfsz	??_gpio_pin_write_logic^0,f,c
  5872   002B40  EF9D  F015         	goto	u3115
  5873   002B44  5002               	movf	gpio_pin_write_logic@config^0,w,c
  5874   002B46  6ED9               	movwf	fsr2l,c
  5875   002B48  6ADA               	clrf	fsr2h,c
  5876   002B4A  50DF               	movf	223,w,c
  5877   002B4C  0B07               	andlw	7
  5878   002B4E  0D02               	mullw	2
  5879   002B50  50F3               	movf	243,w,c
  5880   002B52  0F8A               	addlw	low _lat_registers
  5881   002B54  6ED9               	movwf	fsr2l,c
  5882   002B56  6ADA               	clrf	fsr2h,c
  5883   002B58  CFDE F006          	movff	postinc2,??_gpio_pin_write_logic+2
  5884   002B5C  CFDD F007          	movff	postdec2,??_gpio_pin_write_logic+3
  5885   002B60  C006  FFD9         	movff	??_gpio_pin_write_logic+2,fsr2l
  5886   002B64  C007  FFDA         	movff	??_gpio_pin_write_logic+3,fsr2h
  5887   002B68  5005               	movf	(??_gpio_pin_write_logic+1)^0,w,c
  5888   002B6A  12DF               	iorwf	indf2,f,c
  5889                           
  5890                           ;MCAL_Layer/GPIO/hal_gpio.c: 88:                 break;
  5891   002B6C  EFCF  F015         	goto	l3811
  5892   002B70                     l3807:
  5893                           
  5894                           ;MCAL_Layer/GPIO/hal_gpio.c: 90:         }
  5895   002B70  EFCF  F015         	goto	l3811
  5896   002B74                     l3809:
  5897   002B74  5003               	movf	gpio_pin_write_logic@logic_status^0,w,c
  5898   002B76  6E04               	movwf	??_gpio_pin_write_logic^0,c
  5899   002B78  6A05               	clrf	(??_gpio_pin_write_logic+1)^0,c
  5900                           
  5901                           ; Switch on 2 bytes has been partitioned into a top level switch of size 1, and 1 sub-sw
      +                          itches
  5902                           ; Switch size 1, requested type "simple"
  5903                           ; Number of cases is 1, Range of values is 0 to 0
  5904                           ; switch strategies available:
  5905                           ; Name         Instructions Cycles
  5906                           ; simple_byte            4     3 (average)
  5907                           ;	Chosen strategy is simple_byte
  5908   002B7A  5005               	movf	(??_gpio_pin_write_logic+1)^0,w,c
  5909   002B7C  0A00               	xorlw	0	; case 0
  5910   002B7E  B4D8               	btfsc	status,2,c
  5911   002B80  EFC4  F015         	goto	l5397
  5912   002B84  EFB8  F015         	goto	l3807
  5913   002B88                     l5397:
  5914                           
  5915                           ; Switch size 1, requested type "simple"
  5916                           ; Number of cases is 2, Range of values is 0 to 1
  5917                           ; switch strategies available:
  5918                           ; Name         Instructions Cycles
  5919                           ; simple_byte            7     4 (average)
  5920                           ;	Chosen strategy is simple_byte
  5921   002B88  5004               	movf	??_gpio_pin_write_logic^0,w,c
  5922   002B8A  0A00               	xorlw	0	; case 0
  5923   002B8C  B4D8               	btfsc	status,2,c
  5924   002B8E  EF65  F015         	goto	l3803
  5925   002B92  0A01               	xorlw	1	; case 1
  5926   002B94  B4D8               	btfsc	status,2,c
  5927   002B96  EF90  F015         	goto	l3805
  5928   002B9A  EFB8  F015         	goto	l3807
  5929   002B9E                     l3811:
  5930                           
  5931                           ;MCAL_Layer/GPIO/hal_gpio.c: 91:         retVal = (Std_ReturnType)0x01;
  5932   002B9E  0E01               	movlw	1
  5933   002BA0  6E09               	movwf	gpio_pin_write_logic@retVal^0,c
  5934   002BA2                     l562:
  5935                           
  5936                           ;MCAL_Layer/GPIO/hal_gpio.c: 93:     return retVal;
  5937   002BA2  5009               	movf	gpio_pin_write_logic@retVal^0,w,c
  5938   002BA4  0012               	return		;funcret
  5939   002BA6                     __end_of_gpio_pin_write_logic:
  5940                           	callstack 0
  5941                           
  5942 ;; *************** function _gpio_pin_direction_initialize *****************
  5943 ;; Defined at:
  5944 ;;		line 26 in file "MCAL_Layer/GPIO/hal_gpio.c"
  5945 ;; Parameters:    Size  Location     Type
  5946 ;;  config          1    1[COMRAM] PTR const struct .
  5947 ;;		 -> ccp1_pwm(14), led_initialize@pin_obj(1), 
  5948 ;; Auto vars:     Size  Location     Type
  5949 ;;  retVal          1    7[COMRAM] unsigned char 
  5950 ;; Return value:  Size  Location     Type
  5951 ;;                  1    wreg      unsigned char 
  5952 ;; Registers used:
  5953 ;;		wreg, fsr2l, fsr2h, status,2, status,0, prodl, prodh
  5954 ;; Tracked objects:
  5955 ;;		On entry : 0/0
  5956 ;;		On exit  : 0/0
  5957 ;;		Unchanged: 0/0
  5958 ;; Data sizes:     COMRAM   BANK0   BANK1   BANK2   BANK3   BANK4   BANK5   BANK6   BANK7   BANK8   BANK9  BANK10  BANK1
      +1  BANK12  BANK13  BANK14  BANK15
  5959 ;;      Params:         1       0       0       0       0       0       0       0       0       0       0       0       
      +0       0       0       0       0
  5960 ;;      Locals:         1       0       0       0       0       0       0       0       0       0       0       0       
      +0       0       0       0       0
  5961 ;;      Temps:          5       0       0       0       0       0       0       0       0       0       0       0       
      +0       0       0       0       0
  5962 ;;      Totals:         7       0       0       0       0       0       0       0       0       0       0       0       
      +0       0       0       0       0
  5963 ;;Total ram usage:        7 bytes
  5964 ;; Hardware stack levels used: 1
  5965 ;; Hardware stack levels required when called: 2
  5966 ;; This function calls:
  5967 ;;		Nothing
  5968 ;; This function is called by:
  5969 ;;		_gpio_pin_initialize
  5970 ;; This function uses a non-reentrant model
  5971 ;;
  5972                           
  5973                           	psect	text26
  5974   00297C                     __ptext26:
  5975                           	callstack 0
  5976   00297C                     _gpio_pin_direction_initialize:
  5977                           	callstack 24
  5978   00297C                     
  5979                           ;MCAL_Layer/GPIO/hal_gpio.c: 28:     if((((void*)0) == config) || (config->pin > 8 -1))
  5980   00297C  5002               	movf	gpio_pin_direction_initialize@config^0,w,c
  5981   00297E  B4D8               	btfsc	status,2,c
  5982   002980  EFC4  F014         	goto	u3151
  5983   002984  EFC6  F014         	goto	u3150
  5984   002988                     u3151:
  5985   002988  EFD6  F014         	goto	l3835
  5986   00298C                     u3150:
  5987   00298C  5002               	movf	gpio_pin_direction_initialize@config^0,w,c
  5988   00298E  6ED9               	movwf	fsr2l,c
  5989   002990  6ADA               	clrf	fsr2h,c
  5990   002992  30DF               	rrcf	223,w,c
  5991   002994  32E8               	rrcf	wreg,f,c
  5992   002996  32E8               	rrcf	wreg,f,c
  5993   002998  0B07               	andlw	7
  5994   00299A  6E03               	movwf	??_gpio_pin_direction_initialize^0,c
  5995   00299C  0E07               	movlw	7
  5996   00299E  6403               	cpfsgt	??_gpio_pin_direction_initialize^0,c
  5997   0029A0  EFD4  F014         	goto	u3161
  5998   0029A4  EFD6  F014         	goto	u3160
  5999   0029A8                     u3161:
  6000   0029A8  EF2F  F015         	goto	l3843
  6001   0029AC                     u3160:
  6002   0029AC                     l3835:
  6003                           
  6004                           ;MCAL_Layer/GPIO/hal_gpio.c: 29:     {;MCAL_Layer/GPIO/hal_gpio.c: 30:         retVal = 
      +                          (Std_ReturnType)0x00;
  6005   0029AC  0E00               	movlw	0
  6006   0029AE  6E08               	movwf	gpio_pin_direction_initialize@retVal^0,c
  6007                           
  6008                           ;MCAL_Layer/GPIO/hal_gpio.c: 31:     }else{
  6009   0029B0  EF47  F015         	goto	l543
  6010   0029B4                     l3837:
  6011                           
  6012                           ;MCAL_Layer/GPIO/hal_gpio.c: 34:             (*tris_registers[config->port] &=~(((uint8)
      +                          1<<config->pin)));
  6013   0029B4  5002               	movf	gpio_pin_direction_initialize@config^0,w,c
  6014   0029B6  6ED9               	movwf	fsr2l,c
  6015   0029B8  6ADA               	clrf	fsr2h,c
  6016   0029BA  30DF               	rrcf	223,w,c
  6017   0029BC  32E8               	rrcf	wreg,f,c
  6018   0029BE  32E8               	rrcf	wreg,f,c
  6019   0029C0  0B07               	andlw	7
  6020   0029C2  6E03               	movwf	??_gpio_pin_direction_initialize^0,c
  6021   0029C4  0E01               	movlw	1
  6022   0029C6  6E04               	movwf	(??_gpio_pin_direction_initialize+1)^0,c
  6023   0029C8  2A03               	incf	??_gpio_pin_direction_initialize^0,f,c
  6024   0029CA  EFE9  F014         	goto	u3174
  6025   0029CE                     u3175:
  6026   0029CE  90D8               	bcf	status,0,c
  6027   0029D0  3604               	rlcf	(??_gpio_pin_direction_initialize+1)^0,f,c
  6028   0029D2                     u3174:
  6029   0029D2  2E03               	decfsz	??_gpio_pin_direction_initialize^0,f,c
  6030   0029D4  EFE7  F014         	goto	u3175
  6031   0029D8  5004               	movf	(??_gpio_pin_direction_initialize+1)^0,w,c
  6032   0029DA  0AFF               	xorlw	255
  6033   0029DC  6E05               	movwf	(??_gpio_pin_direction_initialize+2)^0,c
  6034   0029DE  5002               	movf	gpio_pin_direction_initialize@config^0,w,c
  6035   0029E0  6ED9               	movwf	fsr2l,c
  6036   0029E2  6ADA               	clrf	fsr2h,c
  6037   0029E4  50DF               	movf	223,w,c
  6038   0029E6  0B07               	andlw	7
  6039   0029E8  0D02               	mullw	2
  6040   0029EA  50F3               	movf	243,w,c
  6041   0029EC  0F94               	addlw	low _tris_registers
  6042   0029EE  6ED9               	movwf	fsr2l,c
  6043   0029F0  6ADA               	clrf	fsr2h,c
  6044   0029F2  CFDE F006          	movff	postinc2,??_gpio_pin_direction_initialize+3
  6045   0029F6  CFDD F007          	movff	postdec2,??_gpio_pin_direction_initialize+4
  6046   0029FA  C006  FFD9         	movff	??_gpio_pin_direction_initialize+3,fsr2l
  6047   0029FE  C007  FFDA         	movff	??_gpio_pin_direction_initialize+4,fsr2h
  6048   002A02  5005               	movf	(??_gpio_pin_direction_initialize+2)^0,w,c
  6049   002A04  16DF               	andwf	indf2,f,c
  6050                           
  6051                           ;MCAL_Layer/GPIO/hal_gpio.c: 35:             break;
  6052   002A06  EF45  F015         	goto	l3845
  6053   002A0A                     l3839:
  6054                           
  6055                           ;MCAL_Layer/GPIO/hal_gpio.c: 37:             (*tris_registers[config->port] |=((uint8)1<
      +                          <config->pin));
  6056   002A0A  5002               	movf	gpio_pin_direction_initialize@config^0,w,c
  6057   002A0C  6ED9               	movwf	fsr2l,c
  6058   002A0E  6ADA               	clrf	fsr2h,c
  6059   002A10  30DF               	rrcf	223,w,c
  6060   002A12  32E8               	rrcf	wreg,f,c
  6061   002A14  32E8               	rrcf	wreg,f,c
  6062   002A16  0B07               	andlw	7
  6063   002A18  6E03               	movwf	??_gpio_pin_direction_initialize^0,c
  6064   002A1A  0E01               	movlw	1
  6065   002A1C  6E04               	movwf	(??_gpio_pin_direction_initialize+1)^0,c
  6066   002A1E  2A03               	incf	??_gpio_pin_direction_initialize^0,f,c
  6067   002A20  EF14  F015         	goto	u3184
  6068   002A24                     u3185:
  6069   002A24  90D8               	bcf	status,0,c
  6070   002A26  3604               	rlcf	(??_gpio_pin_direction_initialize+1)^0,f,c
  6071   002A28                     u3184:
  6072   002A28  2E03               	decfsz	??_gpio_pin_direction_initialize^0,f,c
  6073   002A2A  EF12  F015         	goto	u3185
  6074   002A2E  5002               	movf	gpio_pin_direction_initialize@config^0,w,c
  6075   002A30  6ED9               	movwf	fsr2l,c
  6076   002A32  6ADA               	clrf	fsr2h,c
  6077   002A34  50DF               	movf	223,w,c
  6078   002A36  0B07               	andlw	7
  6079   002A38  0D02               	mullw	2
  6080   002A3A  50F3               	movf	243,w,c
  6081   002A3C  0F94               	addlw	low _tris_registers
  6082   002A3E  6ED9               	movwf	fsr2l,c
  6083   002A40  6ADA               	clrf	fsr2h,c
  6084   002A42  CFDE F005          	movff	postinc2,??_gpio_pin_direction_initialize+2
  6085   002A46  CFDD F006          	movff	postdec2,??_gpio_pin_direction_initialize+3
  6086   002A4A  C005  FFD9         	movff	??_gpio_pin_direction_initialize+2,fsr2l
  6087   002A4E  C006  FFDA         	movff	??_gpio_pin_direction_initialize+3,fsr2h
  6088   002A52  5004               	movf	(??_gpio_pin_direction_initialize+1)^0,w,c
  6089   002A54  12DF               	iorwf	indf2,f,c
  6090                           
  6091                           ;MCAL_Layer/GPIO/hal_gpio.c: 38:             break;
  6092   002A56  EF45  F015         	goto	l3845
  6093   002A5A                     l3841:
  6094                           
  6095                           ;MCAL_Layer/GPIO/hal_gpio.c: 40:     }
  6096   002A5A  EF45  F015         	goto	l3845
  6097   002A5E                     l3843:
  6098   002A5E  5002               	movf	gpio_pin_direction_initialize@config^0,w,c
  6099   002A60  6ED9               	movwf	fsr2l,c
  6100   002A62  6ADA               	clrf	fsr2h,c
  6101   002A64  BEDF               	btfsc	indf2,7,c
  6102   002A66  EF37  F015         	goto	u3191
  6103   002A6A  EF3A  F015         	goto	u3190
  6104   002A6E                     u3191:
  6105   002A6E  0E01               	movlw	1
  6106   002A70  EF3B  F015         	goto	u3196
  6107   002A74                     u3190:
  6108   002A74  0E00               	movlw	0
  6109   002A76                     u3196:
  6110                           
  6111                           ; Switch size 1, requested type "simple"
  6112                           ; Number of cases is 2, Range of values is 0 to 1
  6113                           ; switch strategies available:
  6114                           ; Name         Instructions Cycles
  6115                           ; simple_byte            7     4 (average)
  6116                           ;	Chosen strategy is simple_byte
  6117   002A76  0A00               	xorlw	0	; case 0
  6118   002A78  B4D8               	btfsc	status,2,c
  6119   002A7A  EFDA  F014         	goto	l3837
  6120   002A7E  0A01               	xorlw	1	; case 1
  6121   002A80  B4D8               	btfsc	status,2,c
  6122   002A82  EF05  F015         	goto	l3839
  6123   002A86  EF2D  F015         	goto	l3841
  6124   002A8A                     l3845:
  6125                           
  6126                           ;MCAL_Layer/GPIO/hal_gpio.c: 41:         retVal = (Std_ReturnType)0x01;
  6127   002A8A  0E01               	movlw	1
  6128   002A8C  6E08               	movwf	gpio_pin_direction_initialize@retVal^0,c
  6129   002A8E                     l543:
  6130                           
  6131                           ;MCAL_Layer/GPIO/hal_gpio.c: 43:     return retVal;
  6132   002A8E  5008               	movf	gpio_pin_direction_initialize@retVal^0,w,c
  6133   002A90  0012               	return		;funcret
  6134   002A92                     __end_of_gpio_pin_direction_initialize:
  6135                           	callstack 0
  6136                           
  6137 ;; *************** function _EUSART_ASYNC_Read_Byte_Blocking *****************
  6138 ;; Defined at:
  6139 ;;		line 89 in file "MCAL_Layer/EUSART/hal_eusart.c"
  6140 ;; Parameters:    Size  Location     Type
  6141 ;;  _eusart_obj     1    1[COMRAM] PTR const struct .
  6142 ;;		 -> eusart_1(16), 
  6143 ;;  _data           1    2[COMRAM] PTR unsigned char 
  6144 ;;		 -> received_data(1), 
  6145 ;; Auto vars:     Size  Location     Type
  6146 ;;  retVal          1    3[COMRAM] unsigned char 
  6147 ;; Return value:  Size  Location     Type
  6148 ;;                  1    wreg      unsigned char 
  6149 ;; Registers used:
  6150 ;;		wreg, fsr2l, fsr2h, status,2
  6151 ;; Tracked objects:
  6152 ;;		On entry : 0/0
  6153 ;;		On exit  : 0/0
  6154 ;;		Unchanged: 0/0
  6155 ;; Data sizes:     COMRAM   BANK0   BANK1   BANK2   BANK3   BANK4   BANK5   BANK6   BANK7   BANK8   BANK9  BANK10  BANK1
      +1  BANK12  BANK13  BANK14  BANK15
  6156 ;;      Params:         2       0       0       0       0       0       0       0       0       0       0       0       
      +0       0       0       0       0
  6157 ;;      Locals:         1       0       0       0       0       0       0       0       0       0       0       0       
      +0       0       0       0       0
  6158 ;;      Temps:          0       0       0       0       0       0       0       0       0       0       0       0       
      +0       0       0       0       0
  6159 ;;      Totals:         3       0       0       0       0       0       0       0       0       0       0       0       
      +0       0       0       0       0
  6160 ;;Total ram usage:        3 bytes
  6161 ;; Hardware stack levels used: 1
  6162 ;; Hardware stack levels required when called: 2
  6163 ;; This function calls:
  6164 ;;		Nothing
  6165 ;; This function is called by:
  6166 ;;		_main
  6167 ;; This function uses a non-reentrant model
  6168 ;;
  6169                           
  6170                           	psect	text27
  6171   003428                     __ptext27:
  6172                           	callstack 0
  6173   003428                     _EUSART_ASYNC_Read_Byte_Blocking:
  6174                           	callstack 28
  6175   003428                     
  6176                           ;MCAL_Layer/EUSART/hal_eusart.c: 91:     if((((void*)0) == _eusart_obj) || (((void*)0) =
      +                          = _data)){
  6177   003428  5002               	movf	EUSART_ASYNC_Read_Byte_Blocking@_eusart_obj^0,w,c
  6178   00342A  B4D8               	btfsc	status,2,c
  6179   00342C  EF1A  F01A         	goto	u4581
  6180   003430  EF1C  F01A         	goto	u4580
  6181   003434                     u4581:
  6182   003434  EF24  F01A         	goto	l4801
  6183   003438                     u4580:
  6184   003438  5003               	movf	EUSART_ASYNC_Read_Byte_Blocking@_data^0,w,c
  6185   00343A  A4D8               	btfss	status,2,c
  6186   00343C  EF22  F01A         	goto	u4591
  6187   003440  EF24  F01A         	goto	u4590
  6188   003444                     u4591:
  6189   003444  EF28  F01A         	goto	l401
  6190   003448                     u4590:
  6191   003448                     l4801:
  6192                           
  6193                           ;MCAL_Layer/EUSART/hal_eusart.c: 92:         retVal = (Std_ReturnType)0x00;
  6194   003448  0E00               	movlw	0
  6195   00344A  6E04               	movwf	EUSART_ASYNC_Read_Byte_Blocking@retVal^0,c
  6196                           
  6197                           ;MCAL_Layer/EUSART/hal_eusart.c: 93:     }
  6198   00344C  EF36  F01A         	goto	l4807
  6199   003450                     l401:
  6200   003450  AA9E               	btfss	158,5,c	;volatile
  6201   003452  EF2D  F01A         	goto	u4601
  6202   003456  EF2F  F01A         	goto	u4600
  6203   00345A                     u4601:
  6204   00345A  EF28  F01A         	goto	l401
  6205   00345E                     u4600:
  6206   00345E                     
  6207                           ;MCAL_Layer/EUSART/hal_eusart.c: 96:         *_data = RCREG;
  6208   00345E  5003               	movf	EUSART_ASYNC_Read_Byte_Blocking@_data^0,w,c
  6209   003460  6ED9               	movwf	fsr2l,c
  6210   003462  6ADA               	clrf	fsr2h,c
  6211   003464  CFAE FFDF          	movff	4014,indf2	;volatile
  6212   003468                     
  6213                           ;MCAL_Layer/EUSART/hal_eusart.c: 97:         retVal = (Std_ReturnType)0x01;
  6214   003468  0E01               	movlw	1
  6215   00346A  6E04               	movwf	EUSART_ASYNC_Read_Byte_Blocking@retVal^0,c
  6216   00346C                     l4807:
  6217                           
  6218                           ;MCAL_Layer/EUSART/hal_eusart.c: 99:     return retVal;
  6219   00346C  5004               	movf	EUSART_ASYNC_Read_Byte_Blocking@retVal^0,w,c
  6220   00346E  0012               	return		;funcret
  6221   003470                     __end_of_EUSART_ASYNC_Read_Byte_Blocking:
  6222                           	callstack 0
  6223                           
  6224 ;; *************** function _InterruptManagerHigh *****************
  6225 ;; Defined at:
  6226 ;;		line 24 in file "MCAL_Layer/Interrupt/mcal_interrupt_manager.c"
  6227 ;; Parameters:    Size  Location     Type
  6228 ;;		None
  6229 ;; Auto vars:     Size  Location     Type
  6230 ;;		None
  6231 ;; Return value:  Size  Location     Type
  6232 ;;                  1    wreg      void 
  6233 ;; Registers used:
  6234 ;;		wreg, status,2, status,0, cstack
  6235 ;; Tracked objects:
  6236 ;;		On entry : 0/0
  6237 ;;		On exit  : 0/0
  6238 ;;		Unchanged: 0/0
  6239 ;; Data sizes:     COMRAM   BANK0   BANK1   BANK2   BANK3   BANK4   BANK5   BANK6   BANK7   BANK8   BANK9  BANK10  BANK1
      +1  BANK12  BANK13  BANK14  BANK15
  6240 ;;      Params:         0       0       0       0       0       0       0       0       0       0       0       0       
      +0       0       0       0       0
  6241 ;;      Locals:         0       0       0       0       0       0       0       0       0       0       0       0       
      +0       0       0       0       0
  6242 ;;      Temps:          0       0       0       0       0       0       0       0       0       0       0       0       
      +0       0       0       0       0
  6243 ;;      Totals:         0       0       0       0       0       0       0       0       0       0       0       0       
      +0       0       0       0       0
  6244 ;;Total ram usage:        0 bytes
  6245 ;; Hardware stack levels used: 1
  6246 ;; Hardware stack levels required when called: 1
  6247 ;; This function calls:
  6248 ;;		_ADC_ISR
  6249 ;;		_CCP1_ISR
  6250 ;;		_CCP2_ISR
  6251 ;;		_EUSART_Rx_ISR
  6252 ;;		_EUSART_Tx_ISR
  6253 ;;		_INT0_ISR
  6254 ;;		_INT1_ISR
  6255 ;;		_INT2_ISR
  6256 ;;		_RB4_ISR
  6257 ;;		_RB5_ISR
  6258 ;;		_RB6_ISR
  6259 ;;		_RB7_ISR
  6260 ;;		_TMR2_ISR
  6261 ;; This function is called by:
  6262 ;;		Interrupt level 2
  6263 ;; This function uses a non-reentrant model
  6264 ;;
  6265                           
  6266                           	psect	intcode
  6267   000008                     __pintcode:
  6268                           	callstack 0
  6269   000008                     _InterruptManagerHigh:
  6270                           	callstack 24
  6271                           
  6272                           ;incstack = 0
  6273   000008  827E               	bsf	int$flags,1,c	;set compiler interrupt flag (level 2)
  6274   00000A  EDC2  F010         	call	int_func,f	;refresh shadow registers
  6275                           
  6276                           	psect	intcode_body
  6277   002184                     __pintcode_body:
  6278                           	callstack 24
  6279   002184                     int_func:
  6280                           	callstack 24
  6281   002184  0006               	pop		; remove dummy address from shadow register refresh
  6282   002186                     
  6283                           ;MCAL_Layer/Interrupt/mcal_interrupt_manager.c: 26:     if((1 == INTCONbits.INT0IE) && (
      +                          1 == INTCONbits.INT0IF)){
  6284   002186  A8F2               	btfss	242,4,c	;volatile
  6285   002188  EFC8  F010         	goto	i2u500_41
  6286   00218C  EFCA  F010         	goto	i2u500_40
  6287   002190                     i2u500_41:
  6288   002190  EFD3  F010         	goto	i2l5229
  6289   002194                     i2u500_40:
  6290   002194  A2F2               	btfss	242,1,c	;volatile
  6291   002196  EFCF  F010         	goto	i2u501_41
  6292   00219A  EFD1  F010         	goto	i2u501_40
  6293   00219E                     i2u501_41:
  6294   00219E  EFD3  F010         	goto	i2l5229
  6295   0021A2                     i2u501_40:
  6296   0021A2                     
  6297                           ;MCAL_Layer/Interrupt/mcal_interrupt_manager.c: 27:         INT0_ISR();
  6298   0021A2  ECEE  F01A         	call	_INT0_ISR	;wreg free
  6299   0021A6                     i2l5229:
  6300                           
  6301                           ;MCAL_Layer/Interrupt/mcal_interrupt_manager.c: 29:     if((1 == INTCON3bits.INT1IE) && 
      +                          (1 == INTCON3bits.INT1IF)){
  6302   0021A6  A6F0               	btfss	240,3,c	;volatile
  6303   0021A8  EFD8  F010         	goto	i2u502_41
  6304   0021AC  EFDA  F010         	goto	i2u502_40
  6305   0021B0                     i2u502_41:
  6306   0021B0  EFE3  F010         	goto	i2l5235
  6307   0021B4                     i2u502_40:
  6308   0021B4  A0F0               	btfss	240,0,c	;volatile
  6309   0021B6  EFDF  F010         	goto	i2u503_41
  6310   0021BA  EFE1  F010         	goto	i2u503_40
  6311   0021BE                     i2u503_41:
  6312   0021BE  EFE3  F010         	goto	i2l5235
  6313   0021C2                     i2u503_40:
  6314   0021C2                     
  6315                           ;MCAL_Layer/Interrupt/mcal_interrupt_manager.c: 30:         INT1_ISR();
  6316   0021C2  ECEC  F01A         	call	_INT1_ISR	;wreg free
  6317   0021C6                     i2l5235:
  6318                           
  6319                           ;MCAL_Layer/Interrupt/mcal_interrupt_manager.c: 32:     if((1 == INTCON3bits.INT2IE) && 
      +                          (1 == INTCON3bits.INT2IF)){
  6320   0021C6  A8F0               	btfss	240,4,c	;volatile
  6321   0021C8  EFE8  F010         	goto	i2u504_41
  6322   0021CC  EFEA  F010         	goto	i2u504_40
  6323   0021D0                     i2u504_41:
  6324   0021D0  EFF3  F010         	goto	i2l5241
  6325   0021D4                     i2u504_40:
  6326   0021D4  A2F0               	btfss	240,1,c	;volatile
  6327   0021D6  EFEF  F010         	goto	i2u505_41
  6328   0021DA  EFF1  F010         	goto	i2u505_40
  6329   0021DE                     i2u505_41:
  6330   0021DE  EFF3  F010         	goto	i2l5241
  6331   0021E2                     i2u505_40:
  6332   0021E2                     
  6333                           ;MCAL_Layer/Interrupt/mcal_interrupt_manager.c: 33:         INT2_ISR();
  6334   0021E2  ECEA  F01A         	call	_INT2_ISR	;wreg free
  6335   0021E6                     i2l5241:
  6336                           
  6337                           ;MCAL_Layer/Interrupt/mcal_interrupt_manager.c: 38:     if((1 == INTCONbits.RBIE) && (1 
      +                          == INTCONbits.RBIF)
  6338   0021E6  A6F2               	btfss	242,3,c	;volatile
  6339   0021E8  EFF8  F010         	goto	i2u506_41
  6340   0021EC  EFFA  F010         	goto	i2u506_40
  6341   0021F0                     i2u506_41:
  6342   0021F0  EF15  F011         	goto	i2l5253
  6343   0021F4                     i2u506_40:
  6344   0021F4  A0F2               	btfss	242,0,c	;volatile
  6345   0021F6  EFFF  F010         	goto	i2u507_41
  6346   0021FA  EF01  F011         	goto	i2u507_40
  6347   0021FE                     i2u507_41:
  6348   0021FE  EF15  F011         	goto	i2l5253
  6349   002202                     i2u507_40:
  6350   002202  A881               	btfss	129,4,c	;volatile
  6351   002204  EF06  F011         	goto	i2u508_41
  6352   002208  EF08  F011         	goto	i2u508_40
  6353   00220C                     i2u508_41:
  6354   00220C  EF15  F011         	goto	i2l5253
  6355   002210                     i2u508_40:
  6356   002210  047B               	decf	_RB4_flag^0,w,c	;volatile
  6357   002212  A4D8               	btfss	status,2,c
  6358   002214  EF0E  F011         	goto	i2u509_41
  6359   002218  EF10  F011         	goto	i2u509_40
  6360   00221C                     i2u509_41:
  6361   00221C  EF15  F011         	goto	i2l5253
  6362   002220                     i2u509_40:
  6363   002220                     
  6364                           ;MCAL_Layer/Interrupt/mcal_interrupt_manager.c: 39:             && (PORTBbits.RB4 == GPI
      +                          O_HIGH) && (RB4_flag == 1)){;MCAL_Layer/Interrupt/mcal_interrupt_manager.c: 40:         
      +                          RB4_flag = 0;
  6365   002220  0E00               	movlw	0
  6366   002222  6E7B               	movwf	_RB4_flag^0,c	;volatile
  6367   002224                     
  6368                           ;MCAL_Layer/Interrupt/mcal_interrupt_manager.c: 41:         RB4_ISR(0);
  6369   002224  0E00               	movlw	0
  6370   002226  ECC8  F01A         	call	_RB4_ISR
  6371   00222A                     i2l5253:
  6372                           
  6373                           ;MCAL_Layer/Interrupt/mcal_interrupt_manager.c: 43:     if((1 == INTCONbits.RBIE) && (1 
      +                          == INTCONbits.RBIF)
  6374   00222A  A6F2               	btfss	242,3,c	;volatile
  6375   00222C  EF1A  F011         	goto	i2u510_41
  6376   002230  EF1C  F011         	goto	i2u510_40
  6377   002234                     i2u510_41:
  6378   002234  EF37  F011         	goto	i2l5265
  6379   002238                     i2u510_40:
  6380   002238  A0F2               	btfss	242,0,c	;volatile
  6381   00223A  EF21  F011         	goto	i2u511_41
  6382   00223E  EF23  F011         	goto	i2u511_40
  6383   002242                     i2u511_41:
  6384   002242  EF37  F011         	goto	i2l5265
  6385   002246                     i2u511_40:
  6386   002246  B881               	btfsc	129,4,c	;volatile
  6387   002248  EF28  F011         	goto	i2u512_41
  6388   00224C  EF2A  F011         	goto	i2u512_40
  6389   002250                     i2u512_41:
  6390   002250  EF37  F011         	goto	i2l5265
  6391   002254                     i2u512_40:
  6392   002254  507B               	movf	_RB4_flag^0,w,c	;volatile
  6393   002256  A4D8               	btfss	status,2,c
  6394   002258  EF30  F011         	goto	i2u513_41
  6395   00225C  EF32  F011         	goto	i2u513_40
  6396   002260                     i2u513_41:
  6397   002260  EF37  F011         	goto	i2l5265
  6398   002264                     i2u513_40:
  6399   002264                     
  6400                           ;MCAL_Layer/Interrupt/mcal_interrupt_manager.c: 44:             && (PORTBbits.RB4 == GPI
      +                          O_LOW) && (RB4_flag == 0)){;MCAL_Layer/Interrupt/mcal_interrupt_manager.c: 45:         R
      +                          B4_flag = 1;
  6401   002264  0E01               	movlw	1
  6402   002266  6E7B               	movwf	_RB4_flag^0,c	;volatile
  6403   002268                     
  6404                           ;MCAL_Layer/Interrupt/mcal_interrupt_manager.c: 46:         RB4_ISR(1);
  6405   002268  0E01               	movlw	1
  6406   00226A  ECC8  F01A         	call	_RB4_ISR
  6407   00226E                     i2l5265:
  6408                           
  6409                           ;MCAL_Layer/Interrupt/mcal_interrupt_manager.c: 48:     if((1 == INTCONbits.RBIE) && (1 
      +                          == INTCONbits.RBIF)
  6410   00226E  A6F2               	btfss	242,3,c	;volatile
  6411   002270  EF3C  F011         	goto	i2u514_41
  6412   002274  EF3E  F011         	goto	i2u514_40
  6413   002278                     i2u514_41:
  6414   002278  EF59  F011         	goto	i2l5277
  6415   00227C                     i2u514_40:
  6416   00227C  A0F2               	btfss	242,0,c	;volatile
  6417   00227E  EF43  F011         	goto	i2u515_41
  6418   002282  EF45  F011         	goto	i2u515_40
  6419   002286                     i2u515_41:
  6420   002286  EF59  F011         	goto	i2l5277
  6421   00228A                     i2u515_40:
  6422   00228A  AA81               	btfss	129,5,c	;volatile
  6423   00228C  EF4A  F011         	goto	i2u516_41
  6424   002290  EF4C  F011         	goto	i2u516_40
  6425   002294                     i2u516_41:
  6426   002294  EF59  F011         	goto	i2l5277
  6427   002298                     i2u516_40:
  6428   002298  047A               	decf	_RB5_flag^0,w,c	;volatile
  6429   00229A  A4D8               	btfss	status,2,c
  6430   00229C  EF52  F011         	goto	i2u517_41
  6431   0022A0  EF54  F011         	goto	i2u517_40
  6432   0022A4                     i2u517_41:
  6433   0022A4  EF59  F011         	goto	i2l5277
  6434   0022A8                     i2u517_40:
  6435   0022A8                     
  6436                           ;MCAL_Layer/Interrupt/mcal_interrupt_manager.c: 49:             && (PORTBbits.RB5 == GPI
      +                          O_HIGH) && (RB5_flag == 1)){;MCAL_Layer/Interrupt/mcal_interrupt_manager.c: 50:         
      +                          RB5_flag = 0;
  6437   0022A8  0E00               	movlw	0
  6438   0022AA  6E7A               	movwf	_RB5_flag^0,c	;volatile
  6439   0022AC                     
  6440                           ;MCAL_Layer/Interrupt/mcal_interrupt_manager.c: 51:         RB5_ISR(0);
  6441   0022AC  0E00               	movlw	0
  6442   0022AE  ECBB  F01A         	call	_RB5_ISR
  6443   0022B2                     i2l5277:
  6444                           
  6445                           ;MCAL_Layer/Interrupt/mcal_interrupt_manager.c: 53:     if((1 == INTCONbits.RBIE) && (1 
      +                          == INTCONbits.RBIF)
  6446   0022B2  A6F2               	btfss	242,3,c	;volatile
  6447   0022B4  EF5E  F011         	goto	i2u518_41
  6448   0022B8  EF60  F011         	goto	i2u518_40
  6449   0022BC                     i2u518_41:
  6450   0022BC  EF7B  F011         	goto	i2l5289
  6451   0022C0                     i2u518_40:
  6452   0022C0  A0F2               	btfss	242,0,c	;volatile
  6453   0022C2  EF65  F011         	goto	i2u519_41
  6454   0022C6  EF67  F011         	goto	i2u519_40
  6455   0022CA                     i2u519_41:
  6456   0022CA  EF7B  F011         	goto	i2l5289
  6457   0022CE                     i2u519_40:
  6458   0022CE  BA81               	btfsc	129,5,c	;volatile
  6459   0022D0  EF6C  F011         	goto	i2u520_41
  6460   0022D4  EF6E  F011         	goto	i2u520_40
  6461   0022D8                     i2u520_41:
  6462   0022D8  EF7B  F011         	goto	i2l5289
  6463   0022DC                     i2u520_40:
  6464   0022DC  507A               	movf	_RB5_flag^0,w,c	;volatile
  6465   0022DE  A4D8               	btfss	status,2,c
  6466   0022E0  EF74  F011         	goto	i2u521_41
  6467   0022E4  EF76  F011         	goto	i2u521_40
  6468   0022E8                     i2u521_41:
  6469   0022E8  EF7B  F011         	goto	i2l5289
  6470   0022EC                     i2u521_40:
  6471   0022EC                     
  6472                           ;MCAL_Layer/Interrupt/mcal_interrupt_manager.c: 54:             && (PORTBbits.RB5 == GPI
      +                          O_LOW)&& (RB5_flag == 0)){;MCAL_Layer/Interrupt/mcal_interrupt_manager.c: 55:         RB
      +                          5_flag = 1;
  6473   0022EC  0E01               	movlw	1
  6474   0022EE  6E7A               	movwf	_RB5_flag^0,c	;volatile
  6475   0022F0                     
  6476                           ;MCAL_Layer/Interrupt/mcal_interrupt_manager.c: 56:         RB5_ISR(1);
  6477   0022F0  0E01               	movlw	1
  6478   0022F2  ECBB  F01A         	call	_RB5_ISR
  6479   0022F6                     i2l5289:
  6480                           
  6481                           ;MCAL_Layer/Interrupt/mcal_interrupt_manager.c: 58:     if((1 == INTCONbits.RBIE) && (1 
      +                          == INTCONbits.RBIF)
  6482   0022F6  A6F2               	btfss	242,3,c	;volatile
  6483   0022F8  EF80  F011         	goto	i2u522_41
  6484   0022FC  EF82  F011         	goto	i2u522_40
  6485   002300                     i2u522_41:
  6486   002300  EF9D  F011         	goto	i2l5301
  6487   002304                     i2u522_40:
  6488   002304  A0F2               	btfss	242,0,c	;volatile
  6489   002306  EF87  F011         	goto	i2u523_41
  6490   00230A  EF89  F011         	goto	i2u523_40
  6491   00230E                     i2u523_41:
  6492   00230E  EF9D  F011         	goto	i2l5301
  6493   002312                     i2u523_40:
  6494   002312  AC81               	btfss	129,6,c	;volatile
  6495   002314  EF8E  F011         	goto	i2u524_41
  6496   002318  EF90  F011         	goto	i2u524_40
  6497   00231C                     i2u524_41:
  6498   00231C  EF9D  F011         	goto	i2l5301
  6499   002320                     i2u524_40:
  6500   002320  0479               	decf	_RB6_flag^0,w,c	;volatile
  6501   002322  A4D8               	btfss	status,2,c
  6502   002324  EF96  F011         	goto	i2u525_41
  6503   002328  EF98  F011         	goto	i2u525_40
  6504   00232C                     i2u525_41:
  6505   00232C  EF9D  F011         	goto	i2l5301
  6506   002330                     i2u525_40:
  6507   002330                     
  6508                           ;MCAL_Layer/Interrupt/mcal_interrupt_manager.c: 59:             && (PORTBbits.RB6 == GPI
      +                          O_HIGH) && (RB6_flag == 1)){;MCAL_Layer/Interrupt/mcal_interrupt_manager.c: 60:         
      +                          RB6_flag = 0;
  6509   002330  0E00               	movlw	0
  6510   002332  6E79               	movwf	_RB6_flag^0,c	;volatile
  6511   002334                     
  6512                           ;MCAL_Layer/Interrupt/mcal_interrupt_manager.c: 61:         RB6_ISR(0);
  6513   002334  0E00               	movlw	0
  6514   002336  ECAE  F01A         	call	_RB6_ISR
  6515   00233A                     i2l5301:
  6516                           
  6517                           ;MCAL_Layer/Interrupt/mcal_interrupt_manager.c: 63:     if((1 == INTCONbits.RBIE) && (1 
      +                          == INTCONbits.RBIF)
  6518   00233A  A6F2               	btfss	242,3,c	;volatile
  6519   00233C  EFA2  F011         	goto	i2u526_41
  6520   002340  EFA4  F011         	goto	i2u526_40
  6521   002344                     i2u526_41:
  6522   002344  EFBF  F011         	goto	i2l5313
  6523   002348                     i2u526_40:
  6524   002348  A0F2               	btfss	242,0,c	;volatile
  6525   00234A  EFA9  F011         	goto	i2u527_41
  6526   00234E  EFAB  F011         	goto	i2u527_40
  6527   002352                     i2u527_41:
  6528   002352  EFBF  F011         	goto	i2l5313
  6529   002356                     i2u527_40:
  6530   002356  BC81               	btfsc	129,6,c	;volatile
  6531   002358  EFB0  F011         	goto	i2u528_41
  6532   00235C  EFB2  F011         	goto	i2u528_40
  6533   002360                     i2u528_41:
  6534   002360  EFBF  F011         	goto	i2l5313
  6535   002364                     i2u528_40:
  6536   002364  5079               	movf	_RB6_flag^0,w,c	;volatile
  6537   002366  A4D8               	btfss	status,2,c
  6538   002368  EFB8  F011         	goto	i2u529_41
  6539   00236C  EFBA  F011         	goto	i2u529_40
  6540   002370                     i2u529_41:
  6541   002370  EFBF  F011         	goto	i2l5313
  6542   002374                     i2u529_40:
  6543   002374                     
  6544                           ;MCAL_Layer/Interrupt/mcal_interrupt_manager.c: 64:             && (PORTBbits.RB6 == GPI
      +                          O_LOW) && (RB6_flag == 0)){;MCAL_Layer/Interrupt/mcal_interrupt_manager.c: 65:         R
      +                          B6_flag = 1;
  6545   002374  0E01               	movlw	1
  6546   002376  6E79               	movwf	_RB6_flag^0,c	;volatile
  6547   002378                     
  6548                           ;MCAL_Layer/Interrupt/mcal_interrupt_manager.c: 66:         RB6_ISR(1);
  6549   002378  0E01               	movlw	1
  6550   00237A  ECAE  F01A         	call	_RB6_ISR
  6551   00237E                     i2l5313:
  6552                           
  6553                           ;MCAL_Layer/Interrupt/mcal_interrupt_manager.c: 68:     if((1 == INTCONbits.RBIE) && (1 
      +                          == INTCONbits.RBIF)
  6554   00237E  A6F2               	btfss	242,3,c	;volatile
  6555   002380  EFC4  F011         	goto	i2u530_41
  6556   002384  EFC6  F011         	goto	i2u530_40
  6557   002388                     i2u530_41:
  6558   002388  EFE1  F011         	goto	i2l5325
  6559   00238C                     i2u530_40:
  6560   00238C  A0F2               	btfss	242,0,c	;volatile
  6561   00238E  EFCB  F011         	goto	i2u531_41
  6562   002392  EFCD  F011         	goto	i2u531_40
  6563   002396                     i2u531_41:
  6564   002396  EFE1  F011         	goto	i2l5325
  6565   00239A                     i2u531_40:
  6566   00239A  AE81               	btfss	129,7,c	;volatile
  6567   00239C  EFD2  F011         	goto	i2u532_41
  6568   0023A0  EFD4  F011         	goto	i2u532_40
  6569   0023A4                     i2u532_41:
  6570   0023A4  EFE1  F011         	goto	i2l5325
  6571   0023A8                     i2u532_40:
  6572   0023A8  0478               	decf	_RB7_flag^0,w,c	;volatile
  6573   0023AA  A4D8               	btfss	status,2,c
  6574   0023AC  EFDA  F011         	goto	i2u533_41
  6575   0023B0  EFDC  F011         	goto	i2u533_40
  6576   0023B4                     i2u533_41:
  6577   0023B4  EFE1  F011         	goto	i2l5325
  6578   0023B8                     i2u533_40:
  6579   0023B8                     
  6580                           ;MCAL_Layer/Interrupt/mcal_interrupt_manager.c: 69:             && (PORTBbits.RB7 == GPI
      +                          O_HIGH) && (RB7_flag == 1)){;MCAL_Layer/Interrupt/mcal_interrupt_manager.c: 70:         
      +                          RB7_flag = 0;
  6581   0023B8  0E00               	movlw	0
  6582   0023BA  6E78               	movwf	_RB7_flag^0,c	;volatile
  6583   0023BC                     
  6584                           ;MCAL_Layer/Interrupt/mcal_interrupt_manager.c: 71:         RB7_ISR(0);
  6585   0023BC  0E00               	movlw	0
  6586   0023BE  ECA1  F01A         	call	_RB7_ISR
  6587   0023C2                     i2l5325:
  6588                           
  6589                           ;MCAL_Layer/Interrupt/mcal_interrupt_manager.c: 73:     if((1 == INTCONbits.RBIE) && (1 
      +                          == INTCONbits.RBIF)
  6590   0023C2  A6F2               	btfss	242,3,c	;volatile
  6591   0023C4  EFE6  F011         	goto	i2u534_41
  6592   0023C8  EFE8  F011         	goto	i2u534_40
  6593   0023CC                     i2u534_41:
  6594   0023CC  EF03  F012         	goto	i2l5337
  6595   0023D0                     i2u534_40:
  6596   0023D0  A0F2               	btfss	242,0,c	;volatile
  6597   0023D2  EFED  F011         	goto	i2u535_41
  6598   0023D6  EFEF  F011         	goto	i2u535_40
  6599   0023DA                     i2u535_41:
  6600   0023DA  EF03  F012         	goto	i2l5337
  6601   0023DE                     i2u535_40:
  6602   0023DE  BE81               	btfsc	129,7,c	;volatile
  6603   0023E0  EFF4  F011         	goto	i2u536_41
  6604   0023E4  EFF6  F011         	goto	i2u536_40
  6605   0023E8                     i2u536_41:
  6606   0023E8  EF03  F012         	goto	i2l5337
  6607   0023EC                     i2u536_40:
  6608   0023EC  5078               	movf	_RB7_flag^0,w,c	;volatile
  6609   0023EE  A4D8               	btfss	status,2,c
  6610   0023F0  EFFC  F011         	goto	i2u537_41
  6611   0023F4  EFFE  F011         	goto	i2u537_40
  6612   0023F8                     i2u537_41:
  6613   0023F8  EF03  F012         	goto	i2l5337
  6614   0023FC                     i2u537_40:
  6615   0023FC                     
  6616                           ;MCAL_Layer/Interrupt/mcal_interrupt_manager.c: 74:             && (PORTBbits.RB7 == GPI
      +                          O_LOW) && (RB7_flag == 0)){;MCAL_Layer/Interrupt/mcal_interrupt_manager.c: 75:         R
      +                          B7_flag = 1;
  6617   0023FC  0E01               	movlw	1
  6618   0023FE  6E78               	movwf	_RB7_flag^0,c	;volatile
  6619   002400                     
  6620                           ;MCAL_Layer/Interrupt/mcal_interrupt_manager.c: 76:         RB7_ISR(1);
  6621   002400  0E01               	movlw	1
  6622   002402  ECA1  F01A         	call	_RB7_ISR
  6623   002406                     i2l5337:
  6624                           
  6625                           ;MCAL_Layer/Interrupt/mcal_interrupt_manager.c: 81:     if((1 == PIE1bits.ADIE) && (1 ==
      +                           PIR1bits.ADIF)){
  6626   002406  AC9D               	btfss	157,6,c	;volatile
  6627   002408  EF08  F012         	goto	i2u538_41
  6628   00240C  EF0A  F012         	goto	i2u538_40
  6629   002410                     i2u538_41:
  6630   002410  EF13  F012         	goto	i2l5343
  6631   002414                     i2u538_40:
  6632   002414  AC9E               	btfss	158,6,c	;volatile
  6633   002416  EF0F  F012         	goto	i2u539_41
  6634   00241A  EF11  F012         	goto	i2u539_40
  6635   00241E                     i2u539_41:
  6636   00241E  EF13  F012         	goto	i2l5343
  6637   002422                     i2u539_40:
  6638   002422                     
  6639                           ;MCAL_Layer/Interrupt/mcal_interrupt_manager.c: 82:         ADC_ISR();
  6640   002422  ECF6  F01A         	call	_ADC_ISR	;wreg free
  6641   002426                     i2l5343:
  6642                           
  6643                           ;MCAL_Layer/Interrupt/mcal_interrupt_manager.c: 89:     if((1 == PIE1bits.CCP1IE) && (1 
      +                          == PIR1bits.CCP1IF)){
  6644   002426  A49D               	btfss	157,2,c	;volatile
  6645   002428  EF18  F012         	goto	i2u540_41
  6646   00242C  EF1A  F012         	goto	i2u540_40
  6647   002430                     i2u540_41:
  6648   002430  EF23  F012         	goto	i2l5349
  6649   002434                     i2u540_40:
  6650   002434  A49E               	btfss	158,2,c	;volatile
  6651   002436  EF1F  F012         	goto	i2u541_41
  6652   00243A  EF21  F012         	goto	i2u541_40
  6653   00243E                     i2u541_41:
  6654   00243E  EF23  F012         	goto	i2l5349
  6655   002442                     i2u541_40:
  6656   002442                     
  6657                           ;MCAL_Layer/Interrupt/mcal_interrupt_manager.c: 90:         CCP1_ISR();
  6658   002442  ECF4  F01A         	call	_CCP1_ISR	;wreg free
  6659   002446                     i2l5349:
  6660                           
  6661                           ;MCAL_Layer/Interrupt/mcal_interrupt_manager.c: 93:     if((1 == PIE2bits.CCP2IE) && (1 
      +                          == PIR2bits.CCP2IF)){
  6662   002446  A0A0               	btfss	160,0,c	;volatile
  6663   002448  EF28  F012         	goto	i2u542_41
  6664   00244C  EF2A  F012         	goto	i2u542_40
  6665   002450                     i2u542_41:
  6666   002450  EF33  F012         	goto	i2l5355
  6667   002454                     i2u542_40:
  6668   002454  A0A1               	btfss	161,0,c	;volatile
  6669   002456  EF2F  F012         	goto	i2u543_41
  6670   00245A  EF31  F012         	goto	i2u543_40
  6671   00245E                     i2u543_41:
  6672   00245E  EF33  F012         	goto	i2l5355
  6673   002462                     i2u543_40:
  6674   002462                     
  6675                           ;MCAL_Layer/Interrupt/mcal_interrupt_manager.c: 94:         CCP2_ISR();
  6676   002462  ECF2  F01A         	call	_CCP2_ISR	;wreg free
  6677   002466                     i2l5355:
  6678                           
  6679                           ;MCAL_Layer/Interrupt/mcal_interrupt_manager.c: 99:     if((1 == PIE1bits.TXIE) && (1 ==
      +                           PIR1bits.TXIF)){
  6680   002466  A89D               	btfss	157,4,c	;volatile
  6681   002468  EF38  F012         	goto	i2u544_41
  6682   00246C  EF3A  F012         	goto	i2u544_40
  6683   002470                     i2u544_41:
  6684   002470  EF43  F012         	goto	i2l5361
  6685   002474                     i2u544_40:
  6686   002474  A89E               	btfss	158,4,c	;volatile
  6687   002476  EF3F  F012         	goto	i2u545_41
  6688   00247A  EF41  F012         	goto	i2u545_40
  6689   00247E                     i2u545_41:
  6690   00247E  EF43  F012         	goto	i2l5361
  6691   002482                     i2u545_40:
  6692   002482                     
  6693                           ;MCAL_Layer/Interrupt/mcal_interrupt_manager.c: 100:         EUSART_Tx_ISR();
  6694   002482  ECF0  F01A         	call	_EUSART_Tx_ISR	;wreg free
  6695   002486                     i2l5361:
  6696                           
  6697                           ;MCAL_Layer/Interrupt/mcal_interrupt_manager.c: 103:     if((1 == PIE1bits.RCIE) && (1 =
      +                          = PIR1bits.RCIF)){
  6698   002486  AA9D               	btfss	157,5,c	;volatile
  6699   002488  EF48  F012         	goto	i2u546_41
  6700   00248C  EF4A  F012         	goto	i2u546_40
  6701   002490                     i2u546_41:
  6702   002490  EF53  F012         	goto	i2l5367
  6703   002494                     i2u546_40:
  6704   002494  AA9E               	btfss	158,5,c	;volatile
  6705   002496  EF4F  F012         	goto	i2u547_41
  6706   00249A  EF51  F012         	goto	i2u547_40
  6707   00249E                     i2u547_41:
  6708   00249E  EF53  F012         	goto	i2l5367
  6709   0024A2                     i2u547_40:
  6710   0024A2                     
  6711                           ;MCAL_Layer/Interrupt/mcal_interrupt_manager.c: 104:         EUSART_Rx_ISR();
  6712   0024A2  ECF8  F01A         	call	_EUSART_Rx_ISR	;wreg free
  6713   0024A6                     i2l5367:
  6714                           
  6715                           ;MCAL_Layer/Interrupt/mcal_interrupt_manager.c: 109:     if((1 == PIE1bits.TMR2IE) && (1
      +                           == PIR1bits.TMR2IF)){
  6716   0024A6  A29D               	btfss	157,1,c	;volatile
  6717   0024A8  EF58  F012         	goto	i2u548_41
  6718   0024AC  EF5A  F012         	goto	i2u548_40
  6719   0024B0                     i2u548_41:
  6720   0024B0  EF63  F012         	goto	i2l913
  6721   0024B4                     i2u548_40:
  6722   0024B4  A29E               	btfss	158,1,c	;volatile
  6723   0024B6  EF5F  F012         	goto	i2u549_41
  6724   0024BA  EF61  F012         	goto	i2u549_40
  6725   0024BE                     i2u549_41:
  6726   0024BE  EF63  F012         	goto	i2l913
  6727   0024C2                     i2u549_40:
  6728   0024C2                     
  6729                           ;MCAL_Layer/Interrupt/mcal_interrupt_manager.c: 110:         TMR2_ISR();
  6730   0024C2  ECE3  F01A         	call	_TMR2_ISR	;wreg free
  6731   0024C6                     i2l913:
  6732   0024C6  927E               	bcf	int$flags,1,c	;clear compiler interrupt flag (level 2)
  6733   0024C8  0011               	retfie		f
  6734   0024CA                     __end_of_InterruptManagerHigh:
  6735                           	callstack 0
  6736                           
  6737 ;; *************** function _TMR2_ISR *****************
  6738 ;; Defined at:
  6739 ;;		line 133 in file "MCAL_Layer/Timer2/hal_timer2.c"
  6740 ;; Parameters:    Size  Location     Type
  6741 ;;		None
  6742 ;; Auto vars:     Size  Location     Type
  6743 ;;		None
  6744 ;; Return value:  Size  Location     Type
  6745 ;;                  1    wreg      void 
  6746 ;; Registers used:
  6747 ;;		None
  6748 ;; Tracked objects:
  6749 ;;		On entry : 0/0
  6750 ;;		On exit  : 0/0
  6751 ;;		Unchanged: 0/0
  6752 ;; Data sizes:     COMRAM   BANK0   BANK1   BANK2   BANK3   BANK4   BANK5   BANK6   BANK7   BANK8   BANK9  BANK10  BANK1
      +1  BANK12  BANK13  BANK14  BANK15
  6753 ;;      Params:         0       0       0       0       0       0       0       0       0       0       0       0       
      +0       0       0       0       0
  6754 ;;      Locals:         0       0       0       0       0       0       0       0       0       0       0       0       
      +0       0       0       0       0
  6755 ;;      Temps:          0       0       0       0       0       0       0       0       0       0       0       0       
      +0       0       0       0       0
  6756 ;;      Totals:         0       0       0       0       0       0       0       0       0       0       0       0       
      +0       0       0       0       0
  6757 ;;Total ram usage:        0 bytes
  6758 ;; Hardware stack levels used: 1
  6759 ;; This function calls:
  6760 ;;		Nothing
  6761 ;; This function is called by:
  6762 ;;		_InterruptManagerHigh
  6763 ;; This function uses a non-reentrant model
  6764 ;;
  6765                           
  6766                           	psect	text29
  6767   0035C6                     __ptext29:
  6768                           	callstack 0
  6769   0035C6                     _TMR2_ISR:
  6770                           	callstack 24
  6771   0035C6                     
  6772                           ;MCAL_Layer/Timer2/hal_timer2.c: 134:     (PIR1bits.TMR2IF = 0);
  6773   0035C6  929E               	bcf	158,1,c	;volatile
  6774                           
  6775                           ;MCAL_Layer/Timer2/hal_timer2.c: 135:     TMR2 = timer2_preload;
  6776   0035C8  C072  FFCC         	movff	_timer2_preload,4044	;volatile
  6777   0035CC  0012               	return		;funcret
  6778   0035CE                     __end_of_TMR2_ISR:
  6779                           	callstack 0
  6780                           
  6781 ;; *************** function _RB7_ISR *****************
  6782 ;; Defined at:
  6783 ;;		line 123 in file "MCAL_Layer/Interrupt/mcal_external_interrupt.c"
  6784 ;; Parameters:    Size  Location     Type
  6785 ;;  RB7_Source      1    wreg     unsigned char 
  6786 ;; Auto vars:     Size  Location     Type
  6787 ;;  RB7_Source      1    0[COMRAM] unsigned char 
  6788 ;; Return value:  Size  Location     Type
  6789 ;;                  1    wreg      void 
  6790 ;; Registers used:
  6791 ;;		wreg, status,2, status,0
  6792 ;; Tracked objects:
  6793 ;;		On entry : 0/0
  6794 ;;		On exit  : 0/0
  6795 ;;		Unchanged: 0/0
  6796 ;; Data sizes:     COMRAM   BANK0   BANK1   BANK2   BANK3   BANK4   BANK5   BANK6   BANK7   BANK8   BANK9  BANK10  BANK1
      +1  BANK12  BANK13  BANK14  BANK15
  6797 ;;      Params:         0       0       0       0       0       0       0       0       0       0       0       0       
      +0       0       0       0       0
  6798 ;;      Locals:         1       0       0       0       0       0       0       0       0       0       0       0       
      +0       0       0       0       0
  6799 ;;      Temps:          0       0       0       0       0       0       0       0       0       0       0       0       
      +0       0       0       0       0
  6800 ;;      Totals:         1       0       0       0       0       0       0       0       0       0       0       0       
      +0       0       0       0       0
  6801 ;;Total ram usage:        1 bytes
  6802 ;; Hardware stack levels used: 1
  6803 ;; This function calls:
  6804 ;;		Nothing
  6805 ;; This function is called by:
  6806 ;;		_InterruptManagerHigh
  6807 ;; This function uses a non-reentrant model
  6808 ;;
  6809                           
  6810                           	psect	text30
  6811   003542                     __ptext30:
  6812                           	callstack 0
  6813   003542                     _RB7_ISR:
  6814                           	callstack 24
  6815                           
  6816                           ;incstack = 0
  6817                           ;RB7_ISR@RB7_Source stored from wreg
  6818   003542  6E01               	movwf	RB7_ISR@RB7_Source^0,c
  6819   003544                     
  6820                           ;MCAL_Layer/Interrupt/mcal_external_interrupt.c: 125:     (INTCONbits.RBIF = 0);
  6821   003544  90F2               	bcf	242,0,c	;volatile
  6822   003546                     
  6823                           ;MCAL_Layer/Interrupt/mcal_external_interrupt.c: 128:     if(0 == RB7_Source){
  6824   003546  5001               	movf	RB7_ISR@RB7_Source^0,w,c
  6825   003548  A4D8               	btfss	status,2,c
  6826   00354A  EFA9  F01A         	goto	i2u464_41
  6827   00354E  EFAB  F01A         	goto	i2u464_40
  6828   003552                     i2u464_41:
  6829   003552  EFAD  F01A         	goto	i2l4869
  6830   003556                     i2u464_40:
  6831   003556  EFAD  F01A         	goto	i2l712
  6832   00355A                     i2l4869:
  6833   00355A                     i2l712:
  6834   00355A  0012               	return		;funcret
  6835   00355C                     __end_of_RB7_ISR:
  6836                           	callstack 0
  6837                           
  6838 ;; *************** function _RB6_ISR *****************
  6839 ;; Defined at:
  6840 ;;		line 107 in file "MCAL_Layer/Interrupt/mcal_external_interrupt.c"
  6841 ;; Parameters:    Size  Location     Type
  6842 ;;  RB6_Source      1    wreg     unsigned char 
  6843 ;; Auto vars:     Size  Location     Type
  6844 ;;  RB6_Source      1    0[COMRAM] unsigned char 
  6845 ;; Return value:  Size  Location     Type
  6846 ;;                  1    wreg      void 
  6847 ;; Registers used:
  6848 ;;		wreg, status,2, status,0
  6849 ;; Tracked objects:
  6850 ;;		On entry : 0/0
  6851 ;;		On exit  : 0/0
  6852 ;;		Unchanged: 0/0
  6853 ;; Data sizes:     COMRAM   BANK0   BANK1   BANK2   BANK3   BANK4   BANK5   BANK6   BANK7   BANK8   BANK9  BANK10  BANK1
      +1  BANK12  BANK13  BANK14  BANK15
  6854 ;;      Params:         0       0       0       0       0       0       0       0       0       0       0       0       
      +0       0       0       0       0
  6855 ;;      Locals:         1       0       0       0       0       0       0       0       0       0       0       0       
      +0       0       0       0       0
  6856 ;;      Temps:          0       0       0       0       0       0       0       0       0       0       0       0       
      +0       0       0       0       0
  6857 ;;      Totals:         1       0       0       0       0       0       0       0       0       0       0       0       
      +0       0       0       0       0
  6858 ;;Total ram usage:        1 bytes
  6859 ;; Hardware stack levels used: 1
  6860 ;; This function calls:
  6861 ;;		Nothing
  6862 ;; This function is called by:
  6863 ;;		_InterruptManagerHigh
  6864 ;; This function uses a non-reentrant model
  6865 ;;
  6866                           
  6867                           	psect	text31
  6868   00355C                     __ptext31:
  6869                           	callstack 0
  6870   00355C                     _RB6_ISR:
  6871                           	callstack 24
  6872                           
  6873                           ;incstack = 0
  6874                           ;RB6_ISR@RB6_Source stored from wreg
  6875   00355C  6E01               	movwf	RB6_ISR@RB6_Source^0,c
  6876   00355E                     
  6877                           ;MCAL_Layer/Interrupt/mcal_external_interrupt.c: 109:     (INTCONbits.RBIF = 0);
  6878   00355E  90F2               	bcf	242,0,c	;volatile
  6879   003560                     
  6880                           ;MCAL_Layer/Interrupt/mcal_external_interrupt.c: 112:     if(0 == RB6_Source){
  6881   003560  5001               	movf	RB6_ISR@RB6_Source^0,w,c
  6882   003562  A4D8               	btfss	status,2,c
  6883   003564  EFB6  F01A         	goto	i2u463_41
  6884   003568  EFB8  F01A         	goto	i2u463_40
  6885   00356C                     i2u463_41:
  6886   00356C  EFBA  F01A         	goto	i2l4859
  6887   003570                     i2u463_40:
  6888   003570  EFBA  F01A         	goto	i2l704
  6889   003574                     i2l4859:
  6890   003574                     i2l704:
  6891   003574  0012               	return		;funcret
  6892   003576                     __end_of_RB6_ISR:
  6893                           	callstack 0
  6894                           
  6895 ;; *************** function _RB5_ISR *****************
  6896 ;; Defined at:
  6897 ;;		line 91 in file "MCAL_Layer/Interrupt/mcal_external_interrupt.c"
  6898 ;; Parameters:    Size  Location     Type
  6899 ;;  RB5_Source      1    wreg     unsigned char 
  6900 ;; Auto vars:     Size  Location     Type
  6901 ;;  RB5_Source      1    0[COMRAM] unsigned char 
  6902 ;; Return value:  Size  Location     Type
  6903 ;;                  1    wreg      void 
  6904 ;; Registers used:
  6905 ;;		wreg, status,2, status,0
  6906 ;; Tracked objects:
  6907 ;;		On entry : 0/0
  6908 ;;		On exit  : 0/0
  6909 ;;		Unchanged: 0/0
  6910 ;; Data sizes:     COMRAM   BANK0   BANK1   BANK2   BANK3   BANK4   BANK5   BANK6   BANK7   BANK8   BANK9  BANK10  BANK1
      +1  BANK12  BANK13  BANK14  BANK15
  6911 ;;      Params:         0       0       0       0       0       0       0       0       0       0       0       0       
      +0       0       0       0       0
  6912 ;;      Locals:         1       0       0       0       0       0       0       0       0       0       0       0       
      +0       0       0       0       0
  6913 ;;      Temps:          0       0       0       0       0       0       0       0       0       0       0       0       
      +0       0       0       0       0
  6914 ;;      Totals:         1       0       0       0       0       0       0       0       0       0       0       0       
      +0       0       0       0       0
  6915 ;;Total ram usage:        1 bytes
  6916 ;; Hardware stack levels used: 1
  6917 ;; This function calls:
  6918 ;;		Nothing
  6919 ;; This function is called by:
  6920 ;;		_InterruptManagerHigh
  6921 ;; This function uses a non-reentrant model
  6922 ;;
  6923                           
  6924                           	psect	text32
  6925   003576                     __ptext32:
  6926                           	callstack 0
  6927   003576                     _RB5_ISR:
  6928                           	callstack 24
  6929                           
  6930                           ;incstack = 0
  6931                           ;RB5_ISR@RB5_Source stored from wreg
  6932   003576  6E01               	movwf	RB5_ISR@RB5_Source^0,c
  6933   003578                     
  6934                           ;MCAL_Layer/Interrupt/mcal_external_interrupt.c: 93:     (INTCONbits.RBIF = 0);
  6935   003578  90F2               	bcf	242,0,c	;volatile
  6936   00357A                     
  6937                           ;MCAL_Layer/Interrupt/mcal_external_interrupt.c: 96:     if(0 == RB5_Source){
  6938   00357A  5001               	movf	RB5_ISR@RB5_Source^0,w,c
  6939   00357C  A4D8               	btfss	status,2,c
  6940   00357E  EFC3  F01A         	goto	i2u462_41
  6941   003582  EFC5  F01A         	goto	i2u462_40
  6942   003586                     i2u462_41:
  6943   003586  EFC7  F01A         	goto	i2l4849
  6944   00358A                     i2u462_40:
  6945   00358A  EFC7  F01A         	goto	i2l696
  6946   00358E                     i2l4849:
  6947   00358E                     i2l696:
  6948   00358E  0012               	return		;funcret
  6949   003590                     __end_of_RB5_ISR:
  6950                           	callstack 0
  6951                           
  6952 ;; *************** function _RB4_ISR *****************
  6953 ;; Defined at:
  6954 ;;		line 75 in file "MCAL_Layer/Interrupt/mcal_external_interrupt.c"
  6955 ;; Parameters:    Size  Location     Type
  6956 ;;  RB4_Source      1    wreg     unsigned char 
  6957 ;; Auto vars:     Size  Location     Type
  6958 ;;  RB4_Source      1    0[COMRAM] unsigned char 
  6959 ;; Return value:  Size  Location     Type
  6960 ;;                  1    wreg      void 
  6961 ;; Registers used:
  6962 ;;		wreg, status,2, status,0
  6963 ;; Tracked objects:
  6964 ;;		On entry : 0/0
  6965 ;;		On exit  : 0/0
  6966 ;;		Unchanged: 0/0
  6967 ;; Data sizes:     COMRAM   BANK0   BANK1   BANK2   BANK3   BANK4   BANK5   BANK6   BANK7   BANK8   BANK9  BANK10  BANK1
      +1  BANK12  BANK13  BANK14  BANK15
  6968 ;;      Params:         0       0       0       0       0       0       0       0       0       0       0       0       
      +0       0       0       0       0
  6969 ;;      Locals:         1       0       0       0       0       0       0       0       0       0       0       0       
      +0       0       0       0       0
  6970 ;;      Temps:          0       0       0       0       0       0       0       0       0       0       0       0       
      +0       0       0       0       0
  6971 ;;      Totals:         1       0       0       0       0       0       0       0       0       0       0       0       
      +0       0       0       0       0
  6972 ;;Total ram usage:        1 bytes
  6973 ;; Hardware stack levels used: 1
  6974 ;; This function calls:
  6975 ;;		Nothing
  6976 ;; This function is called by:
  6977 ;;		_InterruptManagerHigh
  6978 ;; This function uses a non-reentrant model
  6979 ;;
  6980                           
  6981                           	psect	text33
  6982   003590                     __ptext33:
  6983                           	callstack 0
  6984   003590                     _RB4_ISR:
  6985                           	callstack 24
  6986                           
  6987                           ;incstack = 0
  6988                           ;RB4_ISR@RB4_Source stored from wreg
  6989   003590  6E01               	movwf	RB4_ISR@RB4_Source^0,c
  6990   003592                     
  6991                           ;MCAL_Layer/Interrupt/mcal_external_interrupt.c: 77:     (INTCONbits.RBIF = 0);
  6992   003592  90F2               	bcf	242,0,c	;volatile
  6993   003594                     
  6994                           ;MCAL_Layer/Interrupt/mcal_external_interrupt.c: 80:     if(0 == RB4_Source){
  6995   003594  5001               	movf	RB4_ISR@RB4_Source^0,w,c
  6996   003596  A4D8               	btfss	status,2,c
  6997   003598  EFD0  F01A         	goto	i2u461_41
  6998   00359C  EFD2  F01A         	goto	i2u461_40
  6999   0035A0                     i2u461_41:
  7000   0035A0  EFD4  F01A         	goto	i2l4839
  7001   0035A4                     i2u461_40:
  7002   0035A4  EFD4  F01A         	goto	i2l688
  7003   0035A8                     i2l4839:
  7004   0035A8                     i2l688:
  7005   0035A8  0012               	return		;funcret
  7006   0035AA                     __end_of_RB4_ISR:
  7007                           	callstack 0
  7008                           
  7009 ;; *************** function _INT2_ISR *****************
  7010 ;; Defined at:
  7011 ;;		line 64 in file "MCAL_Layer/Interrupt/mcal_external_interrupt.c"
  7012 ;; Parameters:    Size  Location     Type
  7013 ;;		None
  7014 ;; Auto vars:     Size  Location     Type
  7015 ;;		None
  7016 ;; Return value:  Size  Location     Type
  7017 ;;                  1    wreg      void 
  7018 ;; Registers used:
  7019 ;;		None
  7020 ;; Tracked objects:
  7021 ;;		On entry : 0/0
  7022 ;;		On exit  : 0/0
  7023 ;;		Unchanged: 0/0
  7024 ;; Data sizes:     COMRAM   BANK0   BANK1   BANK2   BANK3   BANK4   BANK5   BANK6   BANK7   BANK8   BANK9  BANK10  BANK1
      +1  BANK12  BANK13  BANK14  BANK15
  7025 ;;      Params:         0       0       0       0       0       0       0       0       0       0       0       0       
      +0       0       0       0       0
  7026 ;;      Locals:         0       0       0       0       0       0       0       0       0       0       0       0       
      +0       0       0       0       0
  7027 ;;      Temps:          0       0       0       0       0       0       0       0       0       0       0       0       
      +0       0       0       0       0
  7028 ;;      Totals:         0       0       0       0       0       0       0       0       0       0       0       0       
      +0       0       0       0       0
  7029 ;;Total ram usage:        0 bytes
  7030 ;; Hardware stack levels used: 1
  7031 ;; This function calls:
  7032 ;;		Nothing
  7033 ;; This function is called by:
  7034 ;;		_InterruptManagerHigh
  7035 ;; This function uses a non-reentrant model
  7036 ;;
  7037                           
  7038                           	psect	text34
  7039   0035D4                     __ptext34:
  7040                           	callstack 0
  7041   0035D4                     _INT2_ISR:
  7042                           	callstack 24
  7043   0035D4                     
  7044                           ;MCAL_Layer/Interrupt/mcal_external_interrupt.c: 66:     (INTCON3bits.INT2IF = 0);
  7045   0035D4  92F0               	bcf	240,1,c	;volatile
  7046   0035D6  0012               	return		;funcret
  7047   0035D8                     __end_of_INT2_ISR:
  7048                           	callstack 0
  7049                           
  7050 ;; *************** function _INT1_ISR *****************
  7051 ;; Defined at:
  7052 ;;		line 54 in file "MCAL_Layer/Interrupt/mcal_external_interrupt.c"
  7053 ;; Parameters:    Size  Location     Type
  7054 ;;		None
  7055 ;; Auto vars:     Size  Location     Type
  7056 ;;		None
  7057 ;; Return value:  Size  Location     Type
  7058 ;;                  1    wreg      void 
  7059 ;; Registers used:
  7060 ;;		None
  7061 ;; Tracked objects:
  7062 ;;		On entry : 0/0
  7063 ;;		On exit  : 0/0
  7064 ;;		Unchanged: 0/0
  7065 ;; Data sizes:     COMRAM   BANK0   BANK1   BANK2   BANK3   BANK4   BANK5   BANK6   BANK7   BANK8   BANK9  BANK10  BANK1
      +1  BANK12  BANK13  BANK14  BANK15
  7066 ;;      Params:         0       0       0       0       0       0       0       0       0       0       0       0       
      +0       0       0       0       0
  7067 ;;      Locals:         0       0       0       0       0       0       0       0       0       0       0       0       
      +0       0       0       0       0
  7068 ;;      Temps:          0       0       0       0       0       0       0       0       0       0       0       0       
      +0       0       0       0       0
  7069 ;;      Totals:         0       0       0       0       0       0       0       0       0       0       0       0       
      +0       0       0       0       0
  7070 ;;Total ram usage:        0 bytes
  7071 ;; Hardware stack levels used: 1
  7072 ;; This function calls:
  7073 ;;		Nothing
  7074 ;; This function is called by:
  7075 ;;		_InterruptManagerHigh
  7076 ;; This function uses a non-reentrant model
  7077 ;;
  7078                           
  7079                           	psect	text35
  7080   0035D8                     __ptext35:
  7081                           	callstack 0
  7082   0035D8                     _INT1_ISR:
  7083                           	callstack 24
  7084   0035D8                     
  7085                           ;MCAL_Layer/Interrupt/mcal_external_interrupt.c: 56:     (INTCON3bits.INT1IF = 0);
  7086   0035D8  90F0               	bcf	240,0,c	;volatile
  7087   0035DA  0012               	return		;funcret
  7088   0035DC                     __end_of_INT1_ISR:
  7089                           	callstack 0
  7090                           
  7091 ;; *************** function _INT0_ISR *****************
  7092 ;; Defined at:
  7093 ;;		line 44 in file "MCAL_Layer/Interrupt/mcal_external_interrupt.c"
  7094 ;; Parameters:    Size  Location     Type
  7095 ;;		None
  7096 ;; Auto vars:     Size  Location     Type
  7097 ;;		None
  7098 ;; Return value:  Size  Location     Type
  7099 ;;                  1    wreg      void 
  7100 ;; Registers used:
  7101 ;;		None
  7102 ;; Tracked objects:
  7103 ;;		On entry : 0/0
  7104 ;;		On exit  : 0/0
  7105 ;;		Unchanged: 0/0
  7106 ;; Data sizes:     COMRAM   BANK0   BANK1   BANK2   BANK3   BANK4   BANK5   BANK6   BANK7   BANK8   BANK9  BANK10  BANK1
      +1  BANK12  BANK13  BANK14  BANK15
  7107 ;;      Params:         0       0       0       0       0       0       0       0       0       0       0       0       
      +0       0       0       0       0
  7108 ;;      Locals:         0       0       0       0       0       0       0       0       0       0       0       0       
      +0       0       0       0       0
  7109 ;;      Temps:          0       0       0       0       0       0       0       0       0       0       0       0       
      +0       0       0       0       0
  7110 ;;      Totals:         0       0       0       0       0       0       0       0       0       0       0       0       
      +0       0       0       0       0
  7111 ;;Total ram usage:        0 bytes
  7112 ;; Hardware stack levels used: 1
  7113 ;; This function calls:
  7114 ;;		Nothing
  7115 ;; This function is called by:
  7116 ;;		_InterruptManagerHigh
  7117 ;; This function uses a non-reentrant model
  7118 ;;
  7119                           
  7120                           	psect	text36
  7121   0035DC                     __ptext36:
  7122                           	callstack 0
  7123   0035DC                     _INT0_ISR:
  7124                           	callstack 24
  7125   0035DC                     
  7126                           ;MCAL_Layer/Interrupt/mcal_external_interrupt.c: 46:     (INTCONbits.INT0IF = 0);
  7127   0035DC  92F2               	bcf	242,1,c	;volatile
  7128   0035DE  0012               	return		;funcret
  7129   0035E0                     __end_of_INT0_ISR:
  7130                           	callstack 0
  7131                           
  7132 ;; *************** function _EUSART_Tx_ISR *****************
  7133 ;; Defined at:
  7134 ;;		line 398 in file "MCAL_Layer/EUSART/hal_eusart.c"
  7135 ;; Parameters:    Size  Location     Type
  7136 ;;		None
  7137 ;; Auto vars:     Size  Location     Type
  7138 ;;		None
  7139 ;; Return value:  Size  Location     Type
  7140 ;;                  1    wreg      void 
  7141 ;; Registers used:
  7142 ;;		None
  7143 ;; Tracked objects:
  7144 ;;		On entry : 0/0
  7145 ;;		On exit  : 0/0
  7146 ;;		Unchanged: 0/0
  7147 ;; Data sizes:     COMRAM   BANK0   BANK1   BANK2   BANK3   BANK4   BANK5   BANK6   BANK7   BANK8   BANK9  BANK10  BANK1
      +1  BANK12  BANK13  BANK14  BANK15
  7148 ;;      Params:         0       0       0       0       0       0       0       0       0       0       0       0       
      +0       0       0       0       0
  7149 ;;      Locals:         0       0       0       0       0       0       0       0       0       0       0       0       
      +0       0       0       0       0
  7150 ;;      Temps:          0       0       0       0       0       0       0       0       0       0       0       0       
      +0       0       0       0       0
  7151 ;;      Totals:         0       0       0       0       0       0       0       0       0       0       0       0       
      +0       0       0       0       0
  7152 ;;Total ram usage:        0 bytes
  7153 ;; Hardware stack levels used: 1
  7154 ;; This function calls:
  7155 ;;		Nothing
  7156 ;; This function is called by:
  7157 ;;		_InterruptManagerHigh
  7158 ;; This function uses a non-reentrant model
  7159 ;;
  7160                           
  7161                           	psect	text37
  7162   0035E0                     __ptext37:
  7163                           	callstack 0
  7164   0035E0                     _EUSART_Tx_ISR:
  7165                           	callstack 24
  7166   0035E0                     
  7167                           ;MCAL_Layer/EUSART/hal_eusart.c: 399:     (PIE1bits.TXIE = 0);
  7168   0035E0  989D               	bcf	157,4,c	;volatile
  7169   0035E2  0012               	return		;funcret
  7170   0035E4                     __end_of_EUSART_Tx_ISR:
  7171                           	callstack 0
  7172                           
  7173 ;; *************** function _EUSART_Rx_ISR *****************
  7174 ;; Defined at:
  7175 ;;		line 404 in file "MCAL_Layer/EUSART/hal_eusart.c"
  7176 ;; Parameters:    Size  Location     Type
  7177 ;;		None
  7178 ;; Auto vars:     Size  Location     Type
  7179 ;;		None
  7180 ;; Return value:  Size  Location     Type
  7181 ;;                  1    wreg      void 
  7182 ;; Registers used:
  7183 ;;		wreg, status,2, status,0
  7184 ;; Tracked objects:
  7185 ;;		On entry : 0/0
  7186 ;;		On exit  : 0/0
  7187 ;;		Unchanged: 0/0
  7188 ;; Data sizes:     COMRAM   BANK0   BANK1   BANK2   BANK3   BANK4   BANK5   BANK6   BANK7   BANK8   BANK9  BANK10  BANK1
      +1  BANK12  BANK13  BANK14  BANK15
  7189 ;;      Params:         0       0       0       0       0       0       0       0       0       0       0       0       
      +0       0       0       0       0
  7190 ;;      Locals:         0       0       0       0       0       0       0       0       0       0       0       0       
      +0       0       0       0       0
  7191 ;;      Temps:          0       0       0       0       0       0       0       0       0       0       0       0       
      +0       0       0       0       0
  7192 ;;      Totals:         0       0       0       0       0       0       0       0       0       0       0       0       
      +0       0       0       0       0
  7193 ;;Total ram usage:        0 bytes
  7194 ;; Hardware stack levels used: 1
  7195 ;; This function calls:
  7196 ;;		Nothing
  7197 ;; This function is called by:
  7198 ;;		_InterruptManagerHigh
  7199 ;; This function uses a non-reentrant model
  7200 ;;
  7201                           
  7202                           	psect	text38
  7203   0035F0                     __ptext38:
  7204                           	callstack 0
  7205   0035F0                     _EUSART_Rx_ISR:
  7206                           	callstack 24
  7207   0035F0  0012               	return		;funcret
  7208   0035F2                     __end_of_EUSART_Rx_ISR:
  7209                           	callstack 0
  7210                           
  7211 ;; *************** function _CCP2_ISR *****************
  7212 ;; Defined at:
  7213 ;;		line 497 in file "MCAL_Layer/CCP/hal_ccp.c"
  7214 ;; Parameters:    Size  Location     Type
  7215 ;;		None
  7216 ;; Auto vars:     Size  Location     Type
  7217 ;;		None
  7218 ;; Return value:  Size  Location     Type
  7219 ;;                  1    wreg      void 
  7220 ;; Registers used:
  7221 ;;		None
  7222 ;; Tracked objects:
  7223 ;;		On entry : 0/0
  7224 ;;		On exit  : 0/0
  7225 ;;		Unchanged: 0/0
  7226 ;; Data sizes:     COMRAM   BANK0   BANK1   BANK2   BANK3   BANK4   BANK5   BANK6   BANK7   BANK8   BANK9  BANK10  BANK1
      +1  BANK12  BANK13  BANK14  BANK15
  7227 ;;      Params:         0       0       0       0       0       0       0       0       0       0       0       0       
      +0       0       0       0       0
  7228 ;;      Locals:         0       0       0       0       0       0       0       0       0       0       0       0       
      +0       0       0       0       0
  7229 ;;      Temps:          0       0       0       0       0       0       0       0       0       0       0       0       
      +0       0       0       0       0
  7230 ;;      Totals:         0       0       0       0       0       0       0       0       0       0       0       0       
      +0       0       0       0       0
  7231 ;;Total ram usage:        0 bytes
  7232 ;; Hardware stack levels used: 1
  7233 ;; This function calls:
  7234 ;;		Nothing
  7235 ;; This function is called by:
  7236 ;;		_InterruptManagerHigh
  7237 ;; This function uses a non-reentrant model
  7238 ;;
  7239                           
  7240                           	psect	text39
  7241   0035E4                     __ptext39:
  7242                           	callstack 0
  7243   0035E4                     _CCP2_ISR:
  7244                           	callstack 24
  7245   0035E4                     
  7246                           ;MCAL_Layer/CCP/hal_ccp.c: 498:     (PIR2bits.CCP2IF = 0);
  7247   0035E4  90A1               	bcf	161,0,c	;volatile
  7248   0035E6  0012               	return		;funcret
  7249   0035E8                     __end_of_CCP2_ISR:
  7250                           	callstack 0
  7251                           
  7252 ;; *************** function _CCP1_ISR *****************
  7253 ;; Defined at:
  7254 ;;		line 489 in file "MCAL_Layer/CCP/hal_ccp.c"
  7255 ;; Parameters:    Size  Location     Type
  7256 ;;		None
  7257 ;; Auto vars:     Size  Location     Type
  7258 ;;		None
  7259 ;; Return value:  Size  Location     Type
  7260 ;;                  1    wreg      void 
  7261 ;; Registers used:
  7262 ;;		None
  7263 ;; Tracked objects:
  7264 ;;		On entry : 0/0
  7265 ;;		On exit  : 0/0
  7266 ;;		Unchanged: 0/0
  7267 ;; Data sizes:     COMRAM   BANK0   BANK1   BANK2   BANK3   BANK4   BANK5   BANK6   BANK7   BANK8   BANK9  BANK10  BANK1
      +1  BANK12  BANK13  BANK14  BANK15
  7268 ;;      Params:         0       0       0       0       0       0       0       0       0       0       0       0       
      +0       0       0       0       0
  7269 ;;      Locals:         0       0       0       0       0       0       0       0       0       0       0       0       
      +0       0       0       0       0
  7270 ;;      Temps:          0       0       0       0       0       0       0       0       0       0       0       0       
      +0       0       0       0       0
  7271 ;;      Totals:         0       0       0       0       0       0       0       0       0       0       0       0       
      +0       0       0       0       0
  7272 ;;Total ram usage:        0 bytes
  7273 ;; Hardware stack levels used: 1
  7274 ;; This function calls:
  7275 ;;		Nothing
  7276 ;; This function is called by:
  7277 ;;		_InterruptManagerHigh
  7278 ;; This function uses a non-reentrant model
  7279 ;;
  7280                           
  7281                           	psect	text40
  7282   0035E8                     __ptext40:
  7283                           	callstack 0
  7284   0035E8                     _CCP1_ISR:
  7285                           	callstack 24
  7286   0035E8                     
  7287                           ;MCAL_Layer/CCP/hal_ccp.c: 490:     (PIR1bits.CCP1IF = 0);
  7288   0035E8  949E               	bcf	158,2,c	;volatile
  7289   0035EA  0012               	return		;funcret
  7290   0035EC                     __end_of_CCP1_ISR:
  7291                           	callstack 0
  7292                           
  7293 ;; *************** function _ADC_ISR *****************
  7294 ;; Defined at:
  7295 ;;		line 266 in file "MCAL_Layer/ADC/hal_adc.c"
  7296 ;; Parameters:    Size  Location     Type
  7297 ;;		None
  7298 ;; Auto vars:     Size  Location     Type
  7299 ;;		None
  7300 ;; Return value:  Size  Location     Type
  7301 ;;                  1    wreg      void 
  7302 ;; Registers used:
  7303 ;;		None
  7304 ;; Tracked objects:
  7305 ;;		On entry : 0/0
  7306 ;;		On exit  : 0/0
  7307 ;;		Unchanged: 0/0
  7308 ;; Data sizes:     COMRAM   BANK0   BANK1   BANK2   BANK3   BANK4   BANK5   BANK6   BANK7   BANK8   BANK9  BANK10  BANK1
      +1  BANK12  BANK13  BANK14  BANK15
  7309 ;;      Params:         0       0       0       0       0       0       0       0       0       0       0       0       
      +0       0       0       0       0
  7310 ;;      Locals:         0       0       0       0       0       0       0       0       0       0       0       0       
      +0       0       0       0       0
  7311 ;;      Temps:          0       0       0       0       0       0       0       0       0       0       0       0       
      +0       0       0       0       0
  7312 ;;      Totals:         0       0       0       0       0       0       0       0       0       0       0       0       
      +0       0       0       0       0
  7313 ;;Total ram usage:        0 bytes
  7314 ;; Hardware stack levels used: 1
  7315 ;; This function calls:
  7316 ;;		Nothing
  7317 ;; This function is called by:
  7318 ;;		_InterruptManagerHigh
  7319 ;; This function uses a non-reentrant model
  7320 ;;
  7321                           
  7322                           	psect	text41
  7323   0035EC                     __ptext41:
  7324                           	callstack 0
  7325   0035EC                     _ADC_ISR:
  7326                           	callstack 24
  7327   0035EC                     
  7328                           ;MCAL_Layer/ADC/hal_adc.c: 267:     (PIR1bits.ADIF = 0);
  7329   0035EC  9C9E               	bcf	158,6,c	;volatile
  7330   0035EE  0012               	return		;funcret
  7331   0035F0                     __end_of_ADC_ISR:
  7332                           	callstack 0
  7333                           
  7334                           	psect	smallconst
  7335   001000                     __psmallconst:
  7336                           	callstack 0
  7337   001000  00                 	db	0
  7338   001001  00                 	db	0	; dummy byte at the end
  7339   000000                     
  7340                           	psect	rparam
  7341   000000                     
  7342                           	psect	temp
  7343   00007E                     btemp:
  7344                           	callstack 0
  7345   00007E                     	ds	1
  7346   000000                     int$flags	set	btemp
  7347   000000                     wtemp8	set	btemp+1
  7348   000000                     ttemp5	set	btemp+1
  7349   000000                     ttemp6	set	btemp+4
  7350   000000                     ttemp7	set	btemp+8
  7351                           
  7352                           	psect	config
  7353                           
  7354                           ; Padding undefined space
  7355   300000                     	org	3145728
  7356   300000  FF                 	db	255
  7357                           
  7358                           ;Config register CONFIG1H @ 0x300001
  7359                           ;	Oscillator Selection bits
  7360                           ;	OSC = HS, HS oscillator
  7361                           ;	Fail-Safe Clock Monitor Enable bit
  7362                           ;	FCMEN = OFF, Fail-Safe Clock Monitor disabled
  7363                           ;	Internal/External Oscillator Switchover bit
  7364                           ;	IESO = OFF, Oscillator Switchover mode disabled
  7365   300001                     	org	3145729
  7366   300001  02                 	db	2
  7367                           
  7368                           ;Config register CONFIG2L @ 0x300002
  7369                           ;	Power-up Timer Enable bit
  7370                           ;	PWRT = OFF, PWRT disabled
  7371                           ;	Brown-out Reset Enable bits
  7372                           ;	BOREN = OFF, Brown-out Reset disabled in hardware and software
  7373                           ;	Brown Out Reset Voltage bits
  7374                           ;	BORV = 1, 
  7375   300002                     	org	3145730
  7376   300002  09                 	db	9
  7377                           
  7378                           ;Config register CONFIG2H @ 0x300003
  7379                           ;	Watchdog Timer Enable bit
  7380                           ;	WDT = OFF, WDT disabled (control is placed on the SWDTEN bit)
  7381                           ;	Watchdog Timer Postscale Select bits
  7382                           ;	WDTPS = 32768, 1:32768
  7383   300003                     	org	3145731
  7384   300003  1E                 	db	30
  7385                           
  7386                           ; Padding undefined space
  7387   300004                     	org	3145732
  7388   300004  FF                 	db	255
  7389                           
  7390                           ;Config register CONFIG3H @ 0x300005
  7391                           ;	CCP2 MUX bit
  7392                           ;	CCP2MX = PORTC, CCP2 input/output is multiplexed with RC1
  7393                           ;	PORTB A/D Enable bit
  7394                           ;	PBADEN = OFF, PORTB<4:0> pins are configured as digital I/O on Reset
  7395                           ;	Low-Power Timer1 Oscillator Enable bit
  7396                           ;	LPT1OSC = OFF, Timer1 configured for higher power operation
  7397                           ;	MCLR Pin Enable bit
  7398                           ;	MCLRE = ON, MCLR pin enabled; RE3 input pin disabled
  7399   300005                     	org	3145733
  7400   300005  81                 	db	129
  7401                           
  7402                           ;Config register CONFIG4L @ 0x300006
  7403                           ;	Stack Full/Underflow Reset Enable bit
  7404                           ;	STVREN = ON, Stack full/underflow will cause Reset
  7405                           ;	Single-Supply ICSP Enable bit
  7406                           ;	LVP = OFF, Single-Supply ICSP disabled
  7407                           ;	Extended Instruction Set Enable bit
  7408                           ;	XINST = OFF, Instruction set extension and Indexed Addressing mode disabled (Legacy mo
      +                          de)
  7409                           ;	Background Debugger Enable bit
  7410                           ;	DEBUG = 0x1, unprogrammed default
  7411   300006                     	org	3145734
  7412   300006  81                 	db	129
  7413                           
  7414                           ; Padding undefined space
  7415   300007                     	org	3145735
  7416   300007  FF                 	db	255
  7417                           
  7418                           ;Config register CONFIG5L @ 0x300008
  7419                           ;	Code Protection bit
  7420                           ;	CP0 = OFF, Block 0 (000800-003FFFh) not code-protected
  7421                           ;	Code Protection bit
  7422                           ;	CP1 = OFF, Block 1 (004000-007FFFh) not code-protected
  7423                           ;	Code Protection bit
  7424                           ;	CP2 = OFF, Block 2 (008000-00BFFFh) not code-protected
  7425                           ;	Code Protection bit
  7426                           ;	CP3 = OFF, Block 3 (00C000-00FFFFh) not code-protected
  7427   300008                     	org	3145736
  7428   300008  0F                 	db	15
  7429                           
  7430                           ;Config register CONFIG5H @ 0x300009
  7431                           ;	Boot Block Code Protection bit
  7432                           ;	CPB = OFF, Boot block (000000-0007FFh) not code-protected
  7433                           ;	Data EEPROM Code Protection bit
  7434                           ;	CPD = OFF, Data EEPROM not code-protected
  7435   300009                     	org	3145737
  7436   300009  C0                 	db	192
  7437                           
  7438                           ;Config register CONFIG6L @ 0x30000A
  7439                           ;	Write Protection bit
  7440                           ;	WRT0 = OFF, Block 0 (000800-003FFFh) not write-protected
  7441                           ;	Write Protection bit
  7442                           ;	WRT1 = OFF, Block 1 (004000-007FFFh) not write-protected
  7443                           ;	Write Protection bit
  7444                           ;	WRT2 = OFF, Block 2 (008000-00BFFFh) not write-protected
  7445                           ;	Write Protection bit
  7446                           ;	WRT3 = OFF, Block 3 (00C000-00FFFFh) not write-protected
  7447   30000A                     	org	3145738
  7448   30000A  0F                 	db	15
  7449                           
  7450                           ;Config register CONFIG6H @ 0x30000B
  7451                           ;	Configuration Register Write Protection bit
  7452                           ;	WRTC = OFF, Configuration registers (300000-3000FFh) not write-protected
  7453                           ;	Boot Block Write Protection bit
  7454                           ;	WRTB = OFF, Boot Block (000000-0007FFh) not write-protected
  7455                           ;	Data EEPROM Write Protection bit
  7456                           ;	WRTD = OFF, Data EEPROM not write-protected
  7457   30000B                     	org	3145739
  7458   30000B  E0                 	db	224
  7459                           
  7460                           ;Config register CONFIG7L @ 0x30000C
  7461                           ;	Table Read Protection bit
  7462                           ;	EBTR0 = OFF, Block 0 (000800-003FFFh) not protected from table reads executed in other
      +                           blocks
  7463                           ;	Table Read Protection bit
  7464                           ;	EBTR1 = OFF, Block 1 (004000-007FFFh) not protected from table reads executed in other
      +                           blocks
  7465                           ;	Table Read Protection bit
  7466                           ;	EBTR2 = OFF, Block 2 (008000-00BFFFh) not protected from table reads executed in other
      +                           blocks
  7467                           ;	Table Read Protection bit
  7468                           ;	EBTR3 = OFF, Block 3 (00C000-00FFFFh) not protected from table reads executed in other
      +                           blocks
  7469   30000C                     	org	3145740
  7470   30000C  0F                 	db	15
  7471                           
  7472                           ;Config register CONFIG7H @ 0x30000D
  7473                           ;	Boot Block Table Read Protection bit
  7474                           ;	EBTRB = OFF, Boot Block (000000-0007FFh) not protected from table reads executed in ot
      +                          her blocks
  7475   30000D                     	org	3145741
  7476   30000D  40                 	db	64
  7477                           tosu	equ	0xFFF
  7478                           tosh	equ	0xFFE
  7479                           tosl	equ	0xFFD
  7480                           stkptr	equ	0xFFC
  7481                           pclatu	equ	0xFFB
  7482                           pclath	equ	0xFFA
  7483                           pcl	equ	0xFF9
  7484                           tblptru	equ	0xFF8
  7485                           tblptrh	equ	0xFF7
  7486                           tblptrl	equ	0xFF6
  7487                           tablat	equ	0xFF5
  7488                           prodh	equ	0xFF4
  7489                           prodl	equ	0xFF3
  7490                           indf0	equ	0xFEF
  7491                           postinc0	equ	0xFEE
  7492                           postdec0	equ	0xFED
  7493                           preinc0	equ	0xFEC
  7494                           plusw0	equ	0xFEB
  7495                           fsr0h	equ	0xFEA
  7496                           fsr0l	equ	0xFE9
  7497                           wreg	equ	0xFE8
  7498                           indf1	equ	0xFE7
  7499                           postinc1	equ	0xFE6
  7500                           postdec1	equ	0xFE5
  7501                           preinc1	equ	0xFE4
  7502                           plusw1	equ	0xFE3
  7503                           fsr1h	equ	0xFE2
  7504                           fsr1l	equ	0xFE1
  7505                           bsr	equ	0xFE0
  7506                           indf2	equ	0xFDF
  7507                           postinc2	equ	0xFDE
  7508                           postdec2	equ	0xFDD
  7509                           preinc2	equ	0xFDC
  7510                           plusw2	equ	0xFDB
  7511                           fsr2h	equ	0xFDA
  7512                           fsr2l	equ	0xFD9
  7513                           status	equ	0xFD8

Data Sizes:
    Strings     0
    Constant    0
    Data        66
    BSS         51
    Persistent  0
    Stack       0

Auto Spaces:
    Space          Size  Autos    Used
    COMRAM          126    107     125
    BANK0           128      0      99
    BANK1           256      0       0
    BANK2           256      0       0
    BANK3           256      0       0
    BANK4           256      0       0
    BANK5           256      0       0
    BANK6           256      0       0
    BANK7           256      0       0
    BANK8           256      0       0
    BANK9           256      0       0
    BANK10          256      0       0
    BANK11          256      0       0
    BANK12          256      0       0
    BANK13          256      0       0
    BANK14          256      0       0
    BANK15          128      0       0

Pointer List with Targets:

    ADC_Get_Conversion_Result@adc$ADC_InterruptHandler	PTR FTN()void  size(2) Largest target is 0

    ADC_Init@adc$ADC_InterruptHandler	PTR FTN()void  size(2) Largest target is 0

    ADC_InterruptHandler	PTR FTN()void  size(2) Largest target is 1
		 -> NULL(), 

    CCP1_InterruptHandler	PTR FTN()void  size(2) Largest target is 1
		 -> NULL(), 

    ccp1_pwm$CCP1_InterruptHandler	PTR FTN()void  size(2) Largest target is 1
		 -> NULL(), 

    ccp1_pwm$CCP2_InterruptHandler	PTR FTN()void  size(2) Largest target is 0

    CCP2_InterruptHandler	PTR FTN()void  size(2) Largest target is 2
		 -> ccp1_pwm$CCP2_InterruptHandler(BANK0[2]), NULL(), 

    CCP_Capture_Mode_Config@_ccp_obj	PTR const struct . size(1) Largest target is 14
		 -> ccp1_pwm(BANK0[14]), 

    CCP_Capture_Mode_Config@_ccp_obj$CCP1_InterruptHandler	PTR FTN()void  size(2) Largest target is 1
		 -> NULL(), 

    CCP_Capture_Mode_Config@_ccp_obj$CCP2_InterruptHandler	PTR FTN()void  size(2) Largest target is 0

    CCP_Compare_Mode_Config@_ccp_obj	PTR const struct . size(1) Largest target is 14
		 -> ccp1_pwm(BANK0[14]), 

    CCP_Compare_Mode_Config@_ccp_obj$CCP1_InterruptHandler	PTR FTN()void  size(2) Largest target is 1
		 -> NULL(), 

    CCP_Compare_Mode_Config@_ccp_obj$CCP2_InterruptHandler	PTR FTN()void  size(2) Largest target is 0

    CCP_Compare_Mode_Set_Value@_ccp_obj$CCP1_InterruptHandler	PTR FTN()void  size(2) Largest target is 1
		 -> NULL(), 

    CCP_Compare_Mode_Set_Value@_ccp_obj$CCP2_InterruptHandler	PTR FTN()void  size(2) Largest target is 0

    CCP_DeInit@_ccp_obj$CCP1_InterruptHandler	PTR FTN()void  size(2) Largest target is 1
		 -> NULL(), 

    CCP_DeInit@_ccp_obj$CCP2_InterruptHandler	PTR FTN()void  size(2) Largest target is 0

    CCP_Init@_ccp_obj	PTR const struct . size(1) Largest target is 14
		 -> ccp1_pwm(BANK0[14]), 

    CCP_Init@_ccp_obj$CCP1_InterruptHandler	PTR FTN()void  size(2) Largest target is 1
		 -> NULL(), 

    CCP_Init@_ccp_obj$CCP2_InterruptHandler	PTR FTN()void  size(2) Largest target is 0

    CCP_Interrupt_Config@_ccp_obj	PTR const struct . size(1) Largest target is 14
		 -> ccp1_pwm(BANK0[14]), 

    CCP_Interrupt_Config@_ccp_obj$CCP1_InterruptHandler	PTR FTN()void  size(2) Largest target is 1
		 -> NULL(), 

    CCP_Interrupt_Config@_ccp_obj$CCP2_InterruptHandler	PTR FTN()void  size(2) Largest target is 0

    CCP_Is_Compare_Complete@_ccp_obj$CCP1_InterruptHandler	PTR FTN()void  size(2) Largest target is 1
		 -> NULL(), 

    CCP_Is_Compare_Complete@_ccp_obj$CCP2_InterruptHandler	PTR FTN()void  size(2) Largest target is 0

    CCP_Mode_Timer_Select@_ccp_obj	PTR const struct . size(1) Largest target is 14
		 -> ccp1_pwm(BANK0[14]), 

    CCP_Mode_Timer_Select@_ccp_obj$CCP1_InterruptHandler	PTR FTN()void  size(2) Largest target is 1
		 -> NULL(), 

    CCP_Mode_Timer_Select@_ccp_obj$CCP2_InterruptHandler	PTR FTN()void  size(2) Largest target is 0

    CCP_PWM_Mode_Config@_ccp_obj	PTR const struct . size(1) Largest target is 14
		 -> ccp1_pwm(BANK0[14]), 

    CCP_PWM_Mode_Config@_ccp_obj$CCP1_InterruptHandler	PTR FTN()void  size(2) Largest target is 1
		 -> NULL(), 

    CCP_PWM_Mode_Config@_ccp_obj$CCP2_InterruptHandler	PTR FTN()void  size(2) Largest target is 0

    CCP_PWM_Set_Duty@_ccp_obj$CCP1_InterruptHandler	PTR FTN()void  size(2) Largest target is 1
		 -> NULL(), 

    CCP_PWM_Set_Duty@_ccp_obj$CCP2_InterruptHandler	PTR FTN()void  size(2) Largest target is 0

    CCP_PWM_Start@_ccp_obj$CCP1_InterruptHandler	PTR FTN()void  size(2) Largest target is 1
		 -> NULL(), 

    CCP_PWM_Start@_ccp_obj$CCP2_InterruptHandler	PTR FTN()void  size(2) Largest target is 0

    CCP_PWM_Stop@_ccp_obj$CCP1_InterruptHandler	PTR FTN()void  size(2) Largest target is 1
		 -> NULL(), 

    CCP_PWM_Stop@_ccp_obj$CCP2_InterruptHandler	PTR FTN()void  size(2) Largest target is 0

    eusart_1$EUSART_FramingErrorHandler	PTR FTN()void  size(2) Largest target is 1
		 -> NULL(), 

    eusart_1$EUSART_OverrunErrorHandler	PTR FTN()void  size(2) Largest target is 1
		 -> NULL(), 

    eusart_1$EUSART_RxInterruptHandler	PTR FTN()void  size(2) Largest target is 1
		 -> NULL(), 

    eusart_1$EUSART_TxInterruptHandler	PTR FTN()void  size(2) Largest target is 1
		 -> NULL(), 

    EUSART_ASYNC_Init@_eusart_obj	PTR const struct . size(1) Largest target is 16
		 -> eusart_1(BANK0[16]), 

    EUSART_ASYNC_Read_Byte_Blocking@_data	PTR unsigned char  size(1) Largest target is 1
		 -> received_data(COMRAM[1]), 

    EUSART_ASYNC_Read_Byte_Blocking@_eusart_obj	PTR const struct . size(1) Largest target is 16
		 -> eusart_1(BANK0[16]), 

    EUSART_ASYNC_RX_Init@_eusart_obj	PTR const struct . size(1) Largest target is 16
		 -> eusart_1(BANK0[16]), 

    EUSART_ASYNC_RX_Init@_eusart_obj$EUSART_FramingErrorHandler	PTR FTN()void  size(2) Largest target is 1
		 -> NULL(), 

    EUSART_ASYNC_RX_Init@_eusart_obj$EUSART_OverrunErrorHandler	PTR FTN()void  size(2) Largest target is 1
		 -> NULL(), 

    EUSART_ASYNC_RX_Init@_eusart_obj$EUSART_RxInterruptHandler	PTR FTN()void  size(2) Largest target is 1
		 -> NULL(), 

    EUSART_ASYNC_RX_Init@_eusart_obj$EUSART_TxInterruptHandler	PTR FTN()void  size(2) Largest target is 1
		 -> NULL(), 

    EUSART_ASYNC_TX_Init@_eusart_obj	PTR const struct . size(1) Largest target is 16
		 -> eusart_1(BANK0[16]), 

    EUSART_ASYNC_TX_Init@_eusart_obj$EUSART_FramingErrorHandler	PTR FTN()void  size(2) Largest target is 1
		 -> NULL(), 

    EUSART_ASYNC_TX_Init@_eusart_obj$EUSART_OverrunErrorHandler	PTR FTN()void  size(2) Largest target is 1
		 -> NULL(), 

    EUSART_ASYNC_TX_Init@_eusart_obj$EUSART_RxInterruptHandler	PTR FTN()void  size(2) Largest target is 1
		 -> NULL(), 

    EUSART_ASYNC_TX_Init@_eusart_obj$EUSART_TxInterruptHandler	PTR FTN()void  size(2) Largest target is 1
		 -> NULL(), 

    EUSART_Baud_Rate_Calculation@_eusart_obj	PTR const struct . size(1) Largest target is 16
		 -> eusart_1(BANK0[16]), 

    EUSART_Baud_Rate_Calculation@_eusart_obj$EUSART_FramingErrorHandler	PTR FTN()void  size(2) Largest target is 1
		 -> NULL(), 

    EUSART_Baud_Rate_Calculation@_eusart_obj$EUSART_OverrunErrorHandler	PTR FTN()void  size(2) Largest target is 1
		 -> NULL(), 

    EUSART_Baud_Rate_Calculation@_eusart_obj$EUSART_RxInterruptHandler	PTR FTN()void  size(2) Largest target is 1
		 -> NULL(), 

    EUSART_Baud_Rate_Calculation@_eusart_obj$EUSART_TxInterruptHandler	PTR FTN()void  size(2) Largest target is 1
		 -> NULL(), 

    EUSART_FramingErrorHandler	PTR FTN()void  size(2) Largest target is 1
		 -> NULL(), 

    EUSART_OverrunErrorHandler	PTR FTN()void  size(2) Largest target is 1
		 -> NULL(), 

    EUSART_RxInterruptHandler	PTR FTN()void  size(2) Largest target is 1
		 -> NULL(), 

    EUSART_TxInterruptHandler	PTR FTN()void  size(2) Largest target is 1
		 -> NULL(), 

    gpio_pin_direction_initialize@config	PTR const struct . size(1) Largest target is 14
		 -> ccp1_pwm(BANK0[14]), led_initialize@pin_obj(COMRAM[1]), 

    gpio_pin_initialize@config	PTR const struct . size(1) Largest target is 14
		 -> ccp1_pwm(BANK0[14]), led_initialize@pin_obj(COMRAM[1]), 

    gpio_pin_toggle_logic@config	PTR const struct . size(1) Largest target is 1
		 -> led_toggle@pin_obj(COMRAM[1]), 

    gpio_pin_write_logic@config	PTR const struct . size(1) Largest target is 14
		 -> ccp1_pwm(BANK0[14]), led_initialize@pin_obj(COMRAM[1]), led_turn_off@pin_obj(COMRAM[1]), led_turn_on@pin_obj(COMRAM[1]), 

    INT0_InterruptHandler	PTR FTN()void  size(2) Largest target is 1
		 -> NULL(), 

    INT1_InterruptHandler	PTR FTN()void  size(2) Largest target is 1
		 -> NULL(), 

    INT2_InterruptHandler	PTR FTN()void  size(2) Largest target is 1
		 -> NULL(), 

    Interrupt_INTx_Clear_Flag@int_obj$EXT_InterruptHandler	PTR FTN()void  size(2) Largest target is 0

    Interrupt_INTx_Disable@int_obj$EXT_InterruptHandler	PTR FTN()void  size(2) Largest target is 0

    Interrupt_INTx_Edge_Init@int_obj$EXT_InterruptHandler	PTR FTN()void  size(2) Largest target is 0

    Interrupt_INTx_Enable@int_obj$EXT_InterruptHandler	PTR FTN()void  size(2) Largest target is 0

    Interrupt_INTx_Pin_Init@int_obj$EXT_InterruptHandler	PTR FTN()void  size(2) Largest target is 0

    Interrupt_INTx_SetInterruptHandler@int_obj$EXT_InterruptHandler	PTR FTN()void  size(2) Largest target is 0

    Interrupt_RBx_Init@int_obj$EXT_InterruptHandler_HIGH	PTR FTN()void  size(2) Largest target is 0

    Interrupt_RBx_Init@int_obj$EXT_InterruptHandler_LOW	PTR FTN()void  size(2) Largest target is 0

    Interrupt_RBx_Pin_Init@int_obj$EXT_InterruptHandler_HIGH	PTR FTN()void  size(2) Largest target is 0

    Interrupt_RBx_Pin_Init@int_obj$EXT_InterruptHandler_LOW	PTR FTN()void  size(2) Largest target is 0

    lat_registers	PTR volatile unsigned char [5] size(2) Largest target is 1
		 -> LATA(BITBIGSFRlllll[1]), LATB(BITBIGSFRllllh[1]), LATC(BITBIGSFRllllh[1]), LATD(BITBIGSFRllllh[1]), 
		 -> LATE(BITBIGSFRllllh[1]), 

    led_initialize@led	PTR const struct . size(1) Largest target is 1
		 -> buzzer(COMRAM[1]), led_1(COMRAM[1]), 

    led_toggle@led	PTR const struct . size(1) Largest target is 1
		 -> led_1(COMRAM[1]), 

    led_turn_off@led	PTR const struct . size(1) Largest target is 1
		 -> buzzer(COMRAM[1]), led_1(COMRAM[1]), 

    port_registers	PTR volatile unsigned char [5] size(2) Largest target is 1
		 -> PORTA(BITBIGSFRlllll[1]), PORTB(BITBIGSFRlllll[1]), PORTC(BITBIGSFRlllll[1]), PORTD(BITBIGSFRlllll[1]), 
		 -> PORTE(BITBIGSFRlllll[1]), 

    RB4_InterruptHandler_HIGH	PTR FTN()void  size(2) Largest target is 1
		 -> NULL(), 

    RB4_InterruptHandler_LOW	PTR FTN()void  size(2) Largest target is 1
		 -> NULL(), 

    RB5_InterruptHandler_HIGH	PTR FTN()void  size(2) Largest target is 1
		 -> NULL(), 

    RB5_InterruptHandler_LOW	PTR FTN()void  size(2) Largest target is 1
		 -> NULL(), 

    RB6_InterruptHandler_HIGH	PTR FTN()void  size(2) Largest target is 1
		 -> NULL(), 

    RB6_InterruptHandler_LOW	PTR FTN()void  size(2) Largest target is 1
		 -> NULL(), 

    RB7_InterruptHandler_HIGH	PTR FTN()void  size(2) Largest target is 1
		 -> NULL(), 

    RB7_InterruptHandler_LOW	PTR FTN()void  size(2) Largest target is 1
		 -> NULL(), 

    S1200$EUSART_FramingErrorHandler	PTR FTN()void  size(2) Largest target is 1
		 -> NULL(), 

    S1200$EUSART_OverrunErrorHandler	PTR FTN()void  size(2) Largest target is 1
		 -> NULL(), 

    S1200$EUSART_RxInterruptHandler	PTR FTN()void  size(2) Largest target is 1
		 -> NULL(), 

    S1200$EUSART_TxInterruptHandler	PTR FTN()void  size(2) Largest target is 1
		 -> NULL(), 

    S1861$EXT_InterruptHandler	PTR FTN()void  size(2) Largest target is 0

    S1899$EXT_InterruptHandler_HIGH	PTR FTN()void  size(2) Largest target is 0

    S1899$EXT_InterruptHandler_LOW	PTR FTN()void  size(2) Largest target is 0

    S199$ADC_InterruptHandler	PTR FTN()void  size(2) Largest target is 0

    S2492$TMR2_InterruptHandler	PTR FTN()void  size(2) Largest target is 1
		 -> NULL(), 

    S583$CCP1_InterruptHandler	PTR FTN()void  size(2) Largest target is 1
		 -> NULL(), 

    S583$CCP2_InterruptHandler	PTR FTN()void  size(2) Largest target is 0

    timer$TMR2_InterruptHandler	PTR FTN()void  size(2) Largest target is 1
		 -> NULL(), 

    Timer2_Init@timer2	PTR const struct . size(1) Largest target is 5
		 -> timer(BANK0[5]), 

    Timer2_Init@timer2$TMR2_InterruptHandler	PTR FTN()void  size(2) Largest target is 1
		 -> NULL(), 

    TMR2_InterruptHandler	PTR FTN()void  size(2) Largest target is 1
		 -> NULL(), 

    tris_registers	PTR volatile unsigned char [5] size(2) Largest target is 1
		 -> TRISA(BITBIGSFRlllll[1]), TRISB(ABS[1]), TRISC(SFR[1]), TRISD(ABS[1]), 
		 -> TRISE(ABS[1]), 


Critical Paths under _main in COMRAM

    _led_turn_off->_gpio_pin_write_logic
    _led_toggle->_gpio_pin_toggle_logic
    _mcal_layer_initialize->_CCP_Init
    _mcal_layer_initialize->_EUSART_ASYNC_Init
    _EUSART_ASYNC_Init->_EUSART_Baud_Rate_Calculation
    _EUSART_Baud_Rate_Calculation->___fltol
    _CCP_Init->_CCP_PWM_Mode_Config
    _CCP_PWM_Mode_Config->___fltol
    ___fltol->___fladd
    ___flmul->___xxtofl
    ___fldiv->___flmul
    ___fladd->___fldiv
    _CCP_Compare_Mode_Config->_CCP_Mode_Timer_Select
    _CCP_Capture_Mode_Config->_CCP_Mode_Timer_Select
    _ecu_layer_initialize->_led_initialize
    _led_initialize->_gpio_pin_initialize
    _gpio_pin_initialize->_gpio_pin_write_logic

Critical Paths under _InterruptManagerHigh in COMRAM

    _InterruptManagerHigh->_RB4_ISR
    _InterruptManagerHigh->_RB5_ISR
    _InterruptManagerHigh->_RB6_ISR
    _InterruptManagerHigh->_RB7_ISR

Critical Paths under _main in BANK0

    None.

Critical Paths under _InterruptManagerHigh in BANK0

    None.

Critical Paths under _main in BANK1

    None.

Critical Paths under _InterruptManagerHigh in BANK1

    None.

Critical Paths under _main in BANK2

    None.

Critical Paths under _InterruptManagerHigh in BANK2

    None.

Critical Paths under _main in BANK3

    None.

Critical Paths under _InterruptManagerHigh in BANK3

    None.

Critical Paths under _main in BANK4

    None.

Critical Paths under _InterruptManagerHigh in BANK4

    None.

Critical Paths under _main in BANK5

    None.

Critical Paths under _InterruptManagerHigh in BANK5

    None.

Critical Paths under _main in BANK6

    None.

Critical Paths under _InterruptManagerHigh in BANK6

    None.

Critical Paths under _main in BANK7

    None.

Critical Paths under _InterruptManagerHigh in BANK7

    None.

Critical Paths under _main in BANK8

    None.

Critical Paths under _InterruptManagerHigh in BANK8

    None.

Critical Paths under _main in BANK9

    None.

Critical Paths under _InterruptManagerHigh in BANK9

    None.

Critical Paths under _main in BANK10

    None.

Critical Paths under _InterruptManagerHigh in BANK10

    None.

Critical Paths under _main in BANK11

    None.

Critical Paths under _InterruptManagerHigh in BANK11

    None.

Critical Paths under _main in BANK12

    None.

Critical Paths under _InterruptManagerHigh in BANK12

    None.

Critical Paths under _main in BANK13

    None.

Critical Paths under _InterruptManagerHigh in BANK13

    None.

Critical Paths under _main in BANK14

    None.

Critical Paths under _InterruptManagerHigh in BANK14

    None.

Critical Paths under _main in BANK15

    None.

Critical Paths under _InterruptManagerHigh in BANK15

    None.

Call Graph Tables:

 ---------------------------------------------------------------------------------
 (Depth) Function   	        Calls       Base Space   Used Autos Params    Refs
 ---------------------------------------------------------------------------------
 (0) _main                                                 3     3      0   23219
                                            105 COMRAM     2     2      0
    _EUSART_ASYNC_Read_Byte_Blocking
             _application_initialize
                         _led_toggle
                       _led_turn_off
 ---------------------------------------------------------------------------------
 (1) _led_turn_off                                         4     3      1     917
                                              9 COMRAM     3     2      1
               _gpio_pin_write_logic
 ---------------------------------------------------------------------------------
 (1) _led_toggle                                           4     3      1     376
                                              6 COMRAM     3     2      1
              _gpio_pin_toggle_logic
 ---------------------------------------------------------------------------------
 (2) _gpio_pin_toggle_logic                                6     5      1     173
                                              1 COMRAM     5     4      1
 ---------------------------------------------------------------------------------
 (1) _application_initialize                               1     1      0   21681
               _ecu_layer_initialize
              _mcal_layer_initialize
 ---------------------------------------------------------------------------------
 (2) _mcal_layer_initialize                                1     1      0   20039
                           _CCP_Init
                  _EUSART_ASYNC_Init
                        _Timer2_Init
 ---------------------------------------------------------------------------------
 (3) _Timer2_Init                                          3     2      1     233
                                              1 COMRAM     3     2      1
 ---------------------------------------------------------------------------------
 (3) _EUSART_ASYNC_Init                                    2     1      1    8068
                                            103 COMRAM     2     1      1
               _EUSART_ASYNC_RX_Init
               _EUSART_ASYNC_TX_Init
       _EUSART_Baud_Rate_Calculation
 ---------------------------------------------------------------------------------
 (4) _EUSART_Baud_Rate_Calculation                        12    11      1    7322
                                             91 COMRAM    12    11      1
                            ___fladd
                            ___fldiv
                            ___fltol
                           ___xxtofl
 ---------------------------------------------------------------------------------
 (4) _EUSART_ASYNC_TX_Init                                 2     1      1     255
                                              1 COMRAM     2     1      1
 ---------------------------------------------------------------------------------
 (4) _EUSART_ASYNC_RX_Init                                 2     1      1     299
                                              1 COMRAM     2     1      1
 ---------------------------------------------------------------------------------
 (3) _CCP_Init                                             3     2      1   11734
                                            102 COMRAM     3     2      1
            _CCP_Capture_Mode_Config
            _CCP_Compare_Mode_Config
               _CCP_Interrupt_Config
                _CCP_PWM_Mode_Config
                _gpio_pin_initialize
 ---------------------------------------------------------------------------------
 (4) _CCP_PWM_Mode_Config                                 11    10      1    9077
                                             91 COMRAM    11    10      1
                            ___fladd
                            ___fldiv
                            ___flmul
                            ___fltol
                           ___xxtofl
 ---------------------------------------------------------------------------------
 (5) ___xxtofl                                            14    10      4     869
                                              1 COMRAM    14    10      4
 ---------------------------------------------------------------------------------
 (5) ___fltol                                             10     6      4     483
                                             81 COMRAM    10     6      4
                            ___fladd (ARG)
                            ___fldiv (ARG)
                            ___flmul (ARG)
                           ___xxtofl (ARG)
 ---------------------------------------------------------------------------------
 (5) ___flmul                                             25    17      8    1946
                                             15 COMRAM    25    17      8
                           ___xxtofl (ARG)
 ---------------------------------------------------------------------------------
 (5) ___fldiv                                             25    17      8    2627
                                             40 COMRAM    25    17      8
                            ___flmul (ARG)
                           ___xxtofl (ARG)
 ---------------------------------------------------------------------------------
 (5) ___fladd                                             16     8      8    2876
                                             65 COMRAM    16     8      8
                            ___fldiv (ARG)
                            ___flmul (ARG)
                           ___xxtofl (ARG)
 ---------------------------------------------------------------------------------
 (4) _CCP_Interrupt_Config                                 1     0      1     120
                                              1 COMRAM     1     0      1
 ---------------------------------------------------------------------------------
 (4) _CCP_Compare_Mode_Config                              3     2      1     429
                                              3 COMRAM     3     2      1
              _CCP_Mode_Timer_Select
 ---------------------------------------------------------------------------------
 (4) _CCP_Capture_Mode_Config                              3     2      1     429
                                              3 COMRAM     3     2      1
              _CCP_Mode_Timer_Select
 ---------------------------------------------------------------------------------
 (5) _CCP_Mode_Timer_Select                                2     1      1     218
                                              1 COMRAM     2     1      1
 ---------------------------------------------------------------------------------
 (2) _ecu_layer_initialize                                 1     1      0    1641
                     _led_initialize
 ---------------------------------------------------------------------------------
 (3) _led_initialize                                       4     3      1    1638
                                             12 COMRAM     4     3      1
                _gpio_pin_initialize
 ---------------------------------------------------------------------------------
 (4) _gpio_pin_initialize                                  3     2      1    1333
                                              9 COMRAM     3     2      1
      _gpio_pin_direction_initialize
               _gpio_pin_write_logic
 ---------------------------------------------------------------------------------
 (2) _gpio_pin_write_logic                                 8     6      2     636
                                              1 COMRAM     8     6      2
 ---------------------------------------------------------------------------------
 (5) _gpio_pin_direction_initialize                        7     6      1     256
                                              1 COMRAM     7     6      1
 ---------------------------------------------------------------------------------
 (1) _EUSART_ASYNC_Read_Byte_Blocking                      3     1      2     243
                                              1 COMRAM     3     1      2
 ---------------------------------------------------------------------------------
 Estimated maximum stack depth 5
 ---------------------------------------------------------------------------------
 (Depth) Function   	        Calls       Base Space   Used Autos Params    Refs
 ---------------------------------------------------------------------------------
 (6) _InterruptManagerHigh                                 0     0      0     176
                            _ADC_ISR
                           _CCP1_ISR
                           _CCP2_ISR
                      _EUSART_Rx_ISR
                      _EUSART_Tx_ISR
                           _INT0_ISR
                           _INT1_ISR
                           _INT2_ISR
                            _RB4_ISR
                            _RB5_ISR
                            _RB6_ISR
                            _RB7_ISR
                           _TMR2_ISR
 ---------------------------------------------------------------------------------
 (7) _TMR2_ISR                                             0     0      0       0
 ---------------------------------------------------------------------------------
 (7) _RB7_ISR                                              1     1      0      44
                                              0 COMRAM     1     1      0
 ---------------------------------------------------------------------------------
 (7) _RB6_ISR                                              1     1      0      44
                                              0 COMRAM     1     1      0
 ---------------------------------------------------------------------------------
 (7) _RB5_ISR                                              1     1      0      44
                                              0 COMRAM     1     1      0
 ---------------------------------------------------------------------------------
 (7) _RB4_ISR                                              1     1      0      44
                                              0 COMRAM     1     1      0
 ---------------------------------------------------------------------------------
 (7) _INT2_ISR                                             0     0      0       0
 ---------------------------------------------------------------------------------
 (7) _INT1_ISR                                             0     0      0       0
 ---------------------------------------------------------------------------------
 (7) _INT0_ISR                                             0     0      0       0
 ---------------------------------------------------------------------------------
 (7) _EUSART_Tx_ISR                                        0     0      0       0
 ---------------------------------------------------------------------------------
 (7) _EUSART_Rx_ISR                                        0     0      0       0
 ---------------------------------------------------------------------------------
 (7) _CCP2_ISR                                             0     0      0       0
 ---------------------------------------------------------------------------------
 (7) _CCP1_ISR                                             0     0      0       0
 ---------------------------------------------------------------------------------
 (7) _ADC_ISR                                              0     0      0       0
 ---------------------------------------------------------------------------------
 Estimated maximum stack depth 7
 ---------------------------------------------------------------------------------

 Call Graph Graphs:

 _main (ROOT)
   _EUSART_ASYNC_Read_Byte_Blocking
   _application_initialize
     _ecu_layer_initialize
       _led_initialize
         _gpio_pin_initialize
           _gpio_pin_direction_initialize
           _gpio_pin_write_logic
     _mcal_layer_initialize
       _CCP_Init
         _CCP_Capture_Mode_Config
           _CCP_Mode_Timer_Select
         _CCP_Compare_Mode_Config
           _CCP_Mode_Timer_Select
         _CCP_Interrupt_Config
         _CCP_PWM_Mode_Config
           ___fladd
             ___fldiv (ARG)
               ___flmul (ARG)
                 ___xxtofl (ARG)
               ___xxtofl (ARG)
             ___flmul (ARG)
             ___xxtofl (ARG)
           ___fldiv
           ___flmul
           ___fltol
             ___fladd (ARG)
             ___fldiv (ARG)
             ___flmul (ARG)
             ___xxtofl (ARG)
           ___xxtofl
         _gpio_pin_initialize
       _EUSART_ASYNC_Init
         _EUSART_ASYNC_RX_Init
         _EUSART_ASYNC_TX_Init
         _EUSART_Baud_Rate_Calculation
           ___fladd
           ___fldiv
           ___fltol
           ___xxtofl
       _Timer2_Init
   _led_toggle
     _gpio_pin_toggle_logic
   _led_turn_off
     _gpio_pin_write_logic

 _InterruptManagerHigh (ROOT)
   _ADC_ISR
   _CCP1_ISR
   _CCP2_ISR
   _EUSART_Rx_ISR
   _EUSART_Tx_ISR
   _INT0_ISR
   _INT1_ISR
   _INT2_ISR
   _RB4_ISR
   _RB5_ISR
   _RB6_ISR
   _RB7_ISR
   _TMR2_ISR

 Address spaces:
Name               Size   Autos  Total    Cost      Usage
BIGRAM             F7F      0       0      47        0.0%
EEDATA             400      0       0       0        0.0%
BITBANK14          100      0       0      33        0.0%
BANK14             100      0       0      34        0.0%
BITBANK13          100      0       0      31        0.0%
BANK13             100      0       0      32        0.0%
BITBANK12          100      0       0      29        0.0%
BANK12             100      0       0      30        0.0%
BITBANK11          100      0       0      27        0.0%
BANK11             100      0       0      28        0.0%
BITBANK10          100      0       0      25        0.0%
BANK10             100      0       0      26        0.0%
BITBANK9           100      0       0      23        0.0%
BANK9              100      0       0      24        0.0%
BITBANK8           100      0       0      21        0.0%
BANK8              100      0       0      22        0.0%
BITBANK7           100      0       0      18        0.0%
BANK7              100      0       0      19        0.0%
BITBANK6           100      0       0      16        0.0%
BANK6              100      0       0      17        0.0%
BITBANK5           100      0       0      14        0.0%
BANK5              100      0       0      15        0.0%
BITBANK4           100      0       0      12        0.0%
BANK4              100      0       0      13        0.0%
BITBANK3           100      0       0      10        0.0%
BANK3              100      0       0      11        0.0%
BITBANK2           100      0       0       8        0.0%
BANK2              100      0       0       9        0.0%
BITBANK1           100      0       0       6        0.0%
BANK1              100      0       0       7        0.0%
BITBANK15           80      0       0      35        0.0%
BANK15              80      0       0      36        0.0%
BITBANK0            80      0       0       4        0.0%
BANK0               80      0      63       5       77.3%
BITCOMRAM           7E      0       0       0        0.0%
COMRAM              7E     6B      7D       1       99.2%
BITBIGSFRhlhhl      23      0       0      38        0.0%
BITBIGSFRhh          D      0       0      37        0.0%
BITBIGSFRllhllh      9      0       0      42        0.0%
BITBIGSFRllhllh      6      0       0      41        0.0%
BITBIGSFRlllhh       6      0       0      44        0.0%
BITBIGSFRhlhl        5      0       0      39        0.0%
BITBIGSFRllllh       4      0       0      45        0.0%
BITBIGSFRlllll       4      0       0      46        0.0%
BITBIGSFRllhllh      1      0       0      40        0.0%
BITBIGSFRllhlll      1      0       0      43        0.0%
BIGSFR               0      0       0     200        0.0%
BITSFR               0      0       0     200        0.0%
SFR                  0      0       0     200        0.0%
STACK                0      0       0       2        0.0%
NULL                 0      0       0       0        0.0%
ABS                  0      0      E0      20        0.0%
DATA                 0      0      E0       3        0.0%
CODE                 0      0       0       0        0.0%


Microchip Technology PIC18 Macro Assembler V2.46 build 20240104201356 
Symbol Table                                                                                   Thu Sep 26 00:12:00 2024

                                         l9 3168                                ___fldiv@aexp 0041  
                              ___fldiv@bexp 0040                                ___fldiv@sign 0039  
                                        l13 31C2                                          l30 3246  
                                        l23 31D8                                          l34 329A  
                                        l43 35BA                                          l27 3230  
                                       l210 2F62                                         l213 2F7A  
                                       l401 3450                                         l315 2CB0  
                                       l404 346E                                         l338 297A  
                                       l282 2692                                         l291 3304  
                                       l460 1196                                         l285 3526  
                                       l461 124C                                         l294 3304  
                                       l462 1302                                         l543 2A8E  
                                       l463 13B6                                         l465 14FE  
                                       l457 102A                                         l562 2BA2  
                                       l482 2E9A                                         l491 2E9C  
                                       l459 10E0                                         l387 3488  
                                       l549 2A90                                         l469 303A  
                                       l389 34B4                                         l478 303C  
                                       l582 314E                                         l568 2BA4  
                                       l589 33CC                                         l928 3540  
                                       l963 35C4                                         l980 3056  
                                       l982 30CC                                         _PR2 0FCB  
                    ??_InterruptManagerHigh 0002                   _RB5_InterruptHandler_HIGH 00C8  
                           __end_of_ADC_ISR 35F0                         led_initialize@F3067 0076  
                                       wreg 0FE8                                ___flmul@aexp 0021  
                              ___flmul@bexp 0022                                ___flmul@sign 001C  
                              ___flmul@temp 0027                                ___flmul@prod 0023  
                           __end_of_RB4_ISR 35AA                             __end_of_RB5_ISR 3590  
                           __end_of_RB6_ISR 3576                             __end_of_RB7_ISR 355C  
                              ___fltol@exp1 005B             EUSART_ASYNC_TX_Init@_eusart_obj 0002  
                                      l1303 2DB6                                        l4001 1872  
                                      l1601 20A0                                        l1602 208E  
                                      l4011 189A                                        l4003 1876  
                                      l1620 1A84                                        l4021 18F4  
                                      l4013 18A8                                        l4005 1886  
                                      l4101 1EFC                                        l1534 16EE  
                                      l1630 1CE0                                        l4031 195E  
                                      l4023 1902                                        l4015 18BE  
                                      l4007 1888                                        l1551 1808  
                                      l1543 19BE                                        l1535 16DC  
                                      l4111 1F3A                                        l4103 1F0C  
                                      l1560 18D8                                        l1536 16A2  
                                      l1624 1DE8                                        l4041 1998  
                                      l4033 197E                                        l4025 193C  
                                      l1561 18C6                                        l4009 1896  
                                      l4121 1F82                                        l4113 1F4A  
                                      l4105 1F0C                                        l4201 1A0C  
                                      l4043 199E                                        l4035 1982  
                                      l4019 18E8                                        l4027 193E  
                                      l4131 1FD0                                        l4123 1F96  
                                      l4115 1F5A                                        l4051 1DEA  
                                      l1627 1C7A                                        l4211 1A3C  
                                      l4203 1A12                                        l4045 19AC  
                                      l4037 1990                                        l4029 194E  
                                      l4141 2018                                        l4133 1FE0  
                                      l4125 1FA4                                        l4117 1F6A  
                                      l4109 1F20                                        l4061 1E26  
                                      l4053 1DF6                                        l1637 1DAA  
                                      l4301 1D78                                        l1629 1CF2  
                                      l4221 1A74                                        l4213 1A3E  
                                      l4205 1A22                                        l1661 26EA  
                                      l1590 1FE2                                        l4047 19AE  
                                      l4039 1996                                        l4151 2058  
                                      l4143 2026                                        l4135 1FF2  
                                      l4127 1FB0                                        l4119 1F72  
                                      l4071 1E56                                        l4063 1E36  
                                      l4055 1E04                                        l4311 1DCE  
                                      l4303 1D92                                        l4231 1AC4  
                                      l4223 1A94                                        l4215 1A4E  
                                      l4207 1A28                                        l1664 2846  
                                      l4161 20CA                                        l4153 2086  
                                      l4137 2008                                        l4145 2038  
                                      l4129 1FCE                                        l1593 1FA6  
                                      l4081 1E8C                                        l4073 1E5C  
                                      l4065 1E38                                        l4057 1E06  
                                      l4305 1DAE                                        l4313 1DD4  
                                      l4241 1B14                                        l4233 1ACE  
                                      l4225 1AA4                                        l4217 1A5E  
                                      l4209 1A2E                                        l4321 2CC8  
                                      l4401 2826                                        l4411 337C  
                                      l4171 2142                                        l4163 20F4  
                                      l4147 2046                                        l4139 200E  
                                      l4091 1ECC                                        l4083 1E9C  
                                      l4075 1E6A                                        l4059 1E16  
                                      l4067 1E40                                        l4315 1DD8  
                                      l4307 1DBE                                        l4251 1B56  
                                      l4243 1B20                                        l4235 1AE4  
                                      l4219 1A6E                                        l4331 2D18  
                                      l4403 2834                                        l1675 27DE  
                                      l1588 2182                                        l1668 2782  
                                      l4413 339C                                        l4501 2970  
                                      l4181 2178                                        l4173 215E  
                                      l4157 20B0                                        l4165 20F8  
                                      l4149 204A                                        l4093 1EDC  
                                      l4085 1E9E                                        l4077 1E6C  
                                      l4069 1E50                                        l4309 1DCC  
                                      l4261 1BB8                                        l4253 1B66  
                                      l4245 1B2E                                        l4237 1AF0  
                                      l4229 1AB8                                        l4341 2D42  
                                      l4333 2D1C                                        l4325 2CDC  
                                      l4405 2836                                        l4415 33A4  
                                      l4431 2BD0                                        l4423 2BA6  
                                      l4503 2978                                        l4175 2162  
                                      l4167 2112                                        l4159 20BC  
                                      l1599 2028                                        l4095 1EE4  
                                      l4079 1E7C                                        l4087 1EA6  
                                      l4271 1C60                                        l4263 1BD4  
                                      l4255 1B80                                        l4247 1B3A  
                                      l4239 1B08                                        l4191 19CC  
                                      l4351 2D6A                                        l4343 2D4C  
                                      l4335 2D2A                                        l4327 2D06  
                                      l4319 2CB2                                        l4511 24FC  
                                      l3801 2AC2                                        l4417 33C6  
                                      l4409 336C                                        l4433 2BDC  
                                      l4441 2C2C                                        l4425 2BAA  
                                      l4521 34F2                                        l4177 2170  
                                      l4169 2128                                        l4097 1EE8  
                                      l4089 1EB6                                        l4281 1C9C  
                                      l4273 1C6A                                        l4265 1BFE  
                                      l4257 1B90                                        l4249 1B4A  
                                      l4193 19DA                                        l4353 2D76  
                                      l4345 2D56                                        l4329 2D08  
                                      l4513 2508                                        l4601 2FFC  
                                      l3811 2B9E                                        l3803 2ACA  
                                      l4419 33CA                                        l4451 2C6A  
                                      l4435 2BE8                                        l4531 350E  
                                      l4523 34F6                                        l4179 2176  
                                      l4291 1D0E                                        l4283 1CAA  
                                      l4275 1C78                                        l4267 1C34  
                                      l4259 1BAC                                        l4195 19DC  
                                      l4355 2D86                                        l4371 2710  
                                      l4363 2696                                        l4515 251E  
                                      l4507 24CA                                        l4603 2FFE  
                                      l4611 3036                                        l3805 2B20  
                                      l3821 32B6                                        l4445 2C46  
                                      l4437 2BF4                                        l4429 2BC4  
                                      l4533 3522                                        l4525 3508  
                                      l3901 160C                                        l4293 1D1C  
                                      l4285 1CD8                                        l4277 1C8A  
                                      l4269 1C42                                        l4197 19EC  
                                      l4189 19C0                                        l4357 2D96  
                                      l4381 276A                                        l4365 26A6  
                                      l4517 253A                                        l4509 24E0  
                                      l4621 2DE8                                        l4605 3016  
                                      l4541 1030                                        l4701 3470  
                                      l3831 297C                                        l3807 2B70  
                                      l3823 32BE                                        l4447 2C52  
                                      l4455 2C76                                        l4439 2BFC  
                                      l4471 2872                                        l4463 2848  
                                      l4535 3524                                        l4527 350A  
                                      l3911 1620                                        l3903 1610  
                                      l4295 1D46                                        l4279 1C98  
                                      l4199 19FC                                        l4359 2DA6  
                                      l4391 27CE                                        l4383 276C  
                                      l4375 2724                                        l4367 26B4  
                                      l4519 2542                                        l4631 2E3E  
                                      l4623 2DEA                                        l4615 2DB8  
                                      l4607 301C                                        l4551 11F0  
                                      l4543 1084                                        l4711 34B2  
                                      l4703 3480                                        l4801 3448  
                                      l3841 2A5A                                        l3833 298C  
                                      l3809 2B74                                        l3825 32D8  
                                      l4449 2C5E                                        l4457 2CA6  
                                      l4473 287E                                        l4481 28AA  
                                      l4465 284C                                        l4529 350C  
                                      l3921 1634                                        l3913 1624  
                                      l3905 1614                                        l4289 1D02  
                                      l4297 1D4A                                        l4393 27EC  
                                      l4385 2778                                        l4377 272C  
                                      l4369 26FA                                        l4641 2E7C  
                                      l4625 2E02                                        l4633 2E44  
                                      l4617 2DC8                                        l4609 3034  
                                      l4561 13BA                                        l4553 1252  
                                      l4545 10E6                                        l4537 1002  
                                      l4705 348E                                        l4721 30AE  
                                      l4803 345E                                        l3843 2A5E  
                                      l3835 29AC                                        l4651 3160  
                                      l3827 32E0                                        l3819 329C  
                                      l4459 2CAE                                        l4491 2914  
                                      l4475 288A                                        l4483 28E2  
                                      l3931 166E                                        l3923 1638  
                                      l3915 1628                                        l3907 1618  
                                      l3851 150C                                        l4299 1D64  
                                      l4395 27EE                                        l4387 27B4  
                                      l4379 2738                                        l4643 2E94  
                                      l4635 2E5C                                        l4627 2E06  
                                      l4619 2DD0                                        l4571 14F8  
                                      l4563 140E                                        l4555 12A6  
                                      l4547 113A                                        l4539 1022  
                                      l4707 34AC                                        l4731 30C4  
                                      l4723 30B0                                        l4715 303E  
                                      l4805 3468                                        l3845 2A8A  
                                      l3837 29B4                                        l4661 31BC  
                                      l4653 316C                                        l3829 32FC  
                                      l4493 2920                                        l4477 2896  
                                      l4469 2866                                        l3941 16C0  
                                      l3933 168A                                        l3925 163C  
                                      l3917 162C                                        l3909 161C  
                                      l3861 154C                                        l3853 151A  
                                      l4397 27F2                                        l4389 27C0  
                                      l4637 2E5E                                        l4629 2E3C  
                                      l4645 2E96                                        l4581 2F7C  
                                      l4565 146A                                        l4557 1306  
                                      l4549 119C                                        l4573 14FC  
                                      l4709 34AE                                        l4733 30C6  
                                      l4725 30B2                                        l4717 304E  
                                      l4741 30DE                                        l5381 33EE  
                                      l5373 33CE                                        l4807 346C  
                                      l3839 2A0A                                        l4655 31A2  
                                      l4663 31C0                                        l4751 35AA  
                                      l4495 292C                                        l4487 28FC  
                                      l4479 28A2                                        l3951 170C  
                                      l3943 16CE                                        l3935 169A  
                                      l3919 1630                                        l3927 1640  
                                      l3871 157E                                        l3863 154E  
                                      l3855 151C                                        l4399 2816  
                                      l4671 2EB6                                        l4639 2E76  
                                      l4591 2FC6                                        l4583 2F8C  
                                      l4559 135A                                        l4567 146E  
                                      l4727 30C0                                        l4719 3058  
                                      l4735 30CA                                        l4743 30FE  
                                      l5383 33F6                                        l5375 33CE  
                                      l4657 31B2                                        l4649 3150  
                                      l4753 35AA                                        l4489 2908  
                                      l3961 174C                                        l3945 16D0  
                                      l3937 16B0                                        l3929 1644  
                                      l3881 15A6                                        l3873 1580  
                                      l3857 152C                                        l3865 1556  
                                      l3849 1500                                        l4681 2F08  
                                      l4673 2ECC                                        l4593 2FCA  
                                      l4585 2F94                                        l4569 14C2  
                                      l4729 30C2                                        l4761 3530  
                                      l4921 35BC                                        l4745 3102  
                                      l5385 3410                                        l5377 33D2  
                                      l4659 31B4                                        l4755 35B2  
                                      l4499 2938                                        l3971 1776  
                                      l3963 1758                                        l3955 1720  
                                      l3947 16DA                                        l3939 16BC  
                                      l3891 15E0                                        l3883 15B6  
                                      l3875 1586                                        l3867 1566  
                                      l3859 153C                                        l4691 2F62  
                                      l4683 2F14                                        l4675 2ED4  
                                      l4667 2E9E                                        l4595 2FDC  
                                      l4587 2FAC                                        l5395 148C  
                                      l4763 3538                                        l4923 35C0  
                                      l4747 314E                                        l4739 30CE  
                                      l4771 3212                                        l5379 33DE  
                                      l5397 2B88                                        l3797 2A92  
                                      l3981 17E8                                        l3965 175C  
                                      l3957 1730                                        l3949 16FC  
                                      l3973 177C                                        l3893 15F2  
                                      l3885 15C6                                        l3877 1594  
                                      l3869 156C                                        l4693 2F6C  
                                      l4685 2F2E                                        l4677 2EEA  
                                      l4669 2EAE                                        l4597 2FDE  
                                      l4589 2FAE                                        l4757 3528  
                                      l4781 3232                                        l4773 3222  
                                      l4765 31C4                                        l3799 2AA2  
                                      l3991 1842                                        l3975 17A2  
                                      l3983 17F8                                        l3967 176A  
                                      l3959 173E                                        l3895 1600  
                                      l3887 15C8                                        l3879 1596  
                                      l4695 2F74                                        l4687 2F3A  
                                      l4679 2EEE                                        l4599 2FE4  
                                      l4759 3528                                        l4919 35BC  
                                      l4791 3292                                        l4783 3242  
                                      l4775 3224                                        l4767 31D4  
                                      l3993 184C                                        l3985 181E  
                                      l3977 17D6                                        l3969 176C  
                                      l3897 1604                                        l3889 15D0  
                                      l4689 2F56                                        l4697 2F78  
                                      l4793 329A                                        l4785 324A  
                                      l4777 3230                                        l4769 31DC  
                                      l3995 185A                                        l3987 182E  
                                      l3979 17D8                                        l3899 1608  
                                      l4787 3280                                        l4797 3428  
                                      l3997 185C                                        l4789 3290  
                                      l4799 3438                                        l3999 186A  
                                      _LATA 0F89                                        _LATB 0F8A  
                                      _LATC 0F8B                                        u3104 2AE8  
                                      u3120 32B6                                        u3200 151A  
                                      u4000 1DCC                                        _LATD 0F8C  
                                      u3105 2AE4                                        u3121 32B2  
                                      u3201 1516                                        u4001 1DC8  
                                      _LATE 0F8D                                        u3114 2B3E  
                                      u3130 32D8                                        u3210 152C  
                                      u4010 2CC8                                        u3115 2B3A  
                                      u3131 32D4                                        u3211 1528  
                                      u4011 2CC4                                        u3140 32FC  
                                      u3300 1686                                        u3220 153C  
                                      u4020 2CFC                                        u4100 2710  
                                      u3141 32F8                                        u3301 1680  
                                      u3221 1538                                        u4101 270C  
                                      u3150 298C                                        u3310 1688  
                                      u3230 157E                                        u4030 2D2A  
                                      u4110 2766                                        u3151 2988  
                                      u3231 157A                                        u4031 2D26  
                                      u4111 2762                                        u3160 29AC  
                                      u3080 2AA2                                        u4200 2BC0  
                                      u3400 17A2                                        u3320 16B0  
                                      u3240 1594                                        u4040 2D3E  
                                      u4120 27B0                                        u3161 29A8  
                                      u3081 2A9E                                        u4201 2BBC  
                                      u3401 179E                                        u3321 16AC  
                                      u3241 1590                                        u4041 2D3A  
                                      u4025 2CF2                                        u4121 27AC  
                                      u3090 2AC2                                        u4210 2C42  
                                      u3410 17E8                                        u3330 16CE  
                                      u3250 15A6                                        u4050 2D66  
                                      u4130 27CE                                        u3091 2ABE  
                                      u4211 2C3E                                        u3411 17E4  
                                      u3331 16CA                                        u3251 15A2  
                                      u4051 2D62                                        u4131 27CA  
                                      u4220 2862                                        u3500 18D4  
                                      u3420 181E                                        u3340 16EE  
                                      u3260 15B6                                        u4060 2D86  
                                      u4140 27DE                                        u4300 2FAC  
                                      u4221 285E                                        u3501 18D0  
                                      u3421 181A                                        u3341 16EA  
                                      u3261 15B2                                        u4061 2D82  
                                      u4141 27DA                                        u4301 2FA8  
                                      u3190 2A74                                        u3174 29D2  
                                      u4230 28F8                                        u3510 18E8  
                                      u3430 182E                                        u3350 16FC  
                                      u3270 15F2                                        u4070 2D96  
                                      u4150 27EC                                        u4310 2FC6  
                                      u3191 2A6E                                        u3175 29CE  
                                      u4231 28F4                                        u3511 18E4  
                                      u3431 182A                                        u3351 16F8  
                                      u3271 15EE                                        u4071 2D92  
                                      u4151 27E8                                        u4311 2FC2  
                                      u3184 2A28                                        u3520 1902  
                                      u3440 185A                                        u3360 170C  
                                      u3280 1600                                        u3600 1E16  
                                      u4160 2826                                        u4080 26A6  
                                      u4240 24E0                                        u4400 2E94  
                                      u4320 2FFC                                        u3185 2A24  
                                      u3521 18FE                                        u3441 1856  
                                      u3361 1708                                        u3281 15FC  
                                      u3601 1E12                                        u4161 2822  
                                      u4081 26A2                                        u4241 24DC  
                                      u4401 2E90                                        u4321 2FF8  
                                      u4410 3160                                        u3530 193C  
                                      u3450 186A                                        u3370 173E  
                                      u3290 166E                                        u3610 1E26  
                                      u4170 2834                                        u4090 26B4  
                                      u4250 24FC                                        u4330 3016  
                                      u4411 315C                                        u3531 1938  
                                      u3451 1866                                        u3371 173A  
                                      u3291 166A                                        u3611 1E22  
                                      u4171 2830                                        u4091 26B0  
                                      u4251 24F8                                        u4331 3012  
                                      u3196 2A76                                        u4180 337C  
                                      u3540 194E                                        u3460 1886  
                                      u3380 174C                                        u3700 1FF2  
                                      u3620 1E6A                                        u4260 251E  
                                      u4340 3034                                        u4500 304E  
                                      u4181 3378                                        u3541 194A  
                                      u3461 1882                                        u3381 1748  
                                      u3701 1FEE                                        u3621 1E66  
                                      u4261 251A                                        u4341 3030  
                                      u4501 304A                                        u4190 339C  
                                      u3550 195E                                        u3470 1896  
                                      u3390 176A                                        u3710 2008  
                                      u3630 1E7C                                        u4270 253A  
                                      u4430 2EAE                                        u4350 2DC8  
                                      u4510 30DE                                        u4191 3398  
                                      u3551 195A                                        u3471 1892  
                                      u3391 1766                                        u3711 2004  
                                      u3631 1E78                                        u4271 2536  
                                      u4431 2EAA                                        u4351 2DC4  
                                      u4511 30DA                                        u4600 345E  
                                      u3560 197E                                        u3480 18A8  
                                      u3800 2142                                        u3720 2026  
                                      u3640 1E8C                                        u4440 2ECC  
                                      u4360 2DE8                                        u4280 1022  
                                      u4520 30FE                                        u4601 345A  
                                      u4425 31B0                                        u3561 197A  
                                      u3481 18A4                                        u3801 213E  
                                      u3721 2022                                        u3641 1E88  
                                      u4441 2EC8                                        u4361 2DE4  
                                      u4281 101E                                        u4521 30FA  
                                      u3570 1990                                        u3490 18BE  
                                      u3810 2170                                        u3730 2046  
                                      u3650 1ECC                                        u4450 2EEA  
                                      u4370 2E02                                        u4290 2F8C  
                                      u4427 31B2                                        u3571 198C  
                                      u3491 18BA                                        u3811 216C  
                                      u3731 2042                                        u3651 1EC8  
                                      u4451 2EE6                                        u4371 2DFE  
                                      u4291 2F88                                        u3580 19AC  
                                      u3740 2058                                        u3660 1F0C  
                                      u3900 1C1E                                        u3820 19DA  
                                      u4460 2F08                                        u4380 2E5C  
                                      u4540 31D4                                        u5500 33EE  
                                      u3581 19A8                                        u3741 2054  
                                      u3661 1F08                                        u3821 19D6  
                                      u4461 2F04                                        u4381 2E58  
                                      u4541 31D0                                        u5501 33EA  
                                      u3750 2086                                        u3670 1F82  
                                      u3590 1E04                                        u3910 1C78  
                                      u3830 19EC                                        u4470 2F2E  
                                      u4390 2E76                                        u4534 3120  
                                      u3751 2082                                        u3671 1F7E  
                                      u3591 1E00                                        u3911 1C74  
                                      u3831 19E8                                        u4471 2F2A  
                                      u4391 2E72                                        u4535 311C  
                                      u3760 209C                                        u3680 1FA4  
                                      u3920 1C98                                        u3840 19FC  
                                      u4480 2F56                                        u4560 3242  
                                      u3761 2098                                        u3681 1FA0  
                                      u3921 1C94                                        u3905 1C14  
                                      u3841 19F8                                        u4481 2F52  
                                      u4561 323E                                        u3770 20B0  
                                      u3690 1FCE                                        u3930 1CAA  
                                      u3850 1A3C                                        u4490 3480  
                                      u3771 20AC                                        u3691 1FCA  
                                      u3931 1CA6                                        u3851 1A38  
                                      u4491 347C                                        u4555 3220  
                                      u4580 3438                                        u3780 20CA  
                                      u3940 1CD8                                        u3860 1A4E  
                                      u4581 3434                                        u3781 20C6  
                                      u3941 1CD4                                        u3861 1A4A  
                                      u4557 3222                                        u5517 3400  
                                      u4590 3448                                        u3790 2112  
                                      u3950 1CEE                                        u3870 1A5E  
                                      u4591 3444                                        u3791 210E  
                                      u3951 1CEA                                        u3871 1A5A  
                                      u4575 328E                                        u3960 1D02  
                                      u3880 1A94                                        u3961 1CFE  
                                      u3881 1A90                                        u4577 3290  
                                      u3970 1D1C                                        u3890 1AA4  
                                      u3971 1D18                                        u3891 1AA0  
                                      u3980 1D64                                        u3981 1D60  
                                      u3990 1D92                                        u3991 1D8E  
                                      _TMR2 0FCC                       ??_CCP_PWM_Mode_Config 005D  
             __end_of_mcal_layer_initialize 3542                    _RB4_InterruptHandler_LOW 00CA  
                 ??_CCP_Capture_Mode_Config 0005                                        _main 33CE  
                          __end_of_CCP1_ISR 35EC                            __end_of_CCP2_ISR 35E8  
                  _RB7_InterruptHandler_LOW 00BE                                        fsr2h 0FDA  
                                      indf2 0FDF                                        fsr1l 0FE1  
                                      fsr2l 0FD9                                        btemp 007E  
                    __end_of_led_initialize 31C4                                        prodh 0FF4  
                                      prodl 0FF3                                        start 000E  
           __end_of_CCP_Compare_Mode_Config 297C                             ___fldiv@new_exp 003A  
                             ?_led_turn_off 000A                            __end_of_CCP_Init 2F7C  
                              ___param_bank 0000                      ?_gpio_pin_toggle_logic 0002  
                      _gpio_pin_write_logic 2A92                            __end_of_INT0_ISR 35E0  
                          __end_of_INT1_ISR 35DC                            __end_of_INT2_ISR 35D8  
                             ___fltol@sign1 005A                             __end_of___fladd 19C0  
                                     ?_main 0001                    ??_application_initialize 006A  
                           __end_of___fldiv 2184                             __end_of___flmul 1DEA  
                           __end_of___fltol 2DB8                                       i2l501 35F0  
                                     i2l158 35EE                                       i2l343 35EA  
                                     i2l348 35E6                                       i2l704 3574  
                                     i2l712 355A                                       i2l495 35E2  
                                     i2l672 35DE                                       i2l680 35D6  
                                     i2l913 24C6                                       i2l676 35DA  
                                     i2l688 35A8                                       i2l696 358E  
                                     _RCREG 0FAE                                       _SPBRG 0FAF  
                                     _PORTA 0F80                                       _PORTB 0F81  
                                     _PORTC 0F82                                       _PORTD 0F83  
                                     _PORTE 0F84                               _EUSART_Rx_ISR 35F0  
                                     _TRISA 0F92                                       _TRISB 0F93  
                                     _TRISC 0F94                                       _TRISD 0F95  
                                     _TRISE 0F96                               _EUSART_Tx_ISR 35E0  
                                     _TXREG 0FAD                 gpio_pin_toggle_logic@config 0002  
                          __end_of_TMR2_ISR 35CE                                       _led_1 007D  
                      led_initialize@retVal 000F                                       _timer 00DE  
                                     tablat 0FF5             CCP_Capture_Mode_Config@_ccp_obj 0004  
                                     ttemp5 007F                                       ttemp6 0082  
                                     ttemp7 0086                                       status 0FD8  
                                     wtemp8 007F                             ?_led_initialize 000D  
                            ??_led_turn_off 000B              ?_gpio_pin_direction_initialize 0002  
                           __initialization 3306                                __end_of_main 3428  
                     ?_gpio_pin_write_logic 0002                                   ??_ADC_ISR 0001  
                     _CCP_Mode_Timer_Select 329C                               _lat_registers 008A  
                                    ??_main 006A                               __activetblptr 0002  
                            ?_EUSART_Rx_ISR 0001                              ?_EUSART_Tx_ISR 0001  
                          led_turn_on@F3072 0075                                   ??_RB4_ISR 0001  
                                 ??_RB5_ISR 0001                                   ??_RB6_ISR 0001  
                                 ??_RB7_ISR 0001                  _EUSART_OverrunErrorHandler 00D4  
                                    _ADRESH 0FC4                                      _ADRESL 0FC3  
                                    _CCPR1H 0FBF                                      _CCPR2H 0FBC  
                                    _CCPR1L 0FBE                                      _CCPR2L 0FBB  
                         _EUSART_ASYNC_Init 3470                                      i2l1003 35CC  
                                    i2l2733 35E8                                      i2l5301 233A  
                                    i2l5311 2378                                      i2l5303 2348  
                                    i2l5231 21B4                                      i2l5223 2186  
                                    i2l2729 35EC                                      i2l5321 23B8  
                                    i2l5305 2356                                      i2l5313 237E  
                                    i2l5241 21E6                                      i2l5233 21C2  
                                    i2l5225 2194                                      i2l2739 35E4  
                                    i2l5331 23EC                                      i2l5323 23BC  
                                    i2l5315 238C                                      i2l5307 2364  
                                    i2l5251 2224                                      i2l5243 21F4  
                                    i2l5235 21C6                                      i2l5227 21A2  
                                    i2l5341 2422                                      i2l5333 23FC  
                                    i2l5317 239A                                      i2l5325 23C2  
                                    i2l5309 2374                                      i2l5261 2264  
                                    i2l5245 2202                                      i2l5253 222A  
                                    i2l5237 21D4                                      i2l5229 21A6  
                                    i2l5351 2454                                      i2l5343 2426  
                                    i2l5335 2400                                      i2l5327 23D0  
                                    i2l5319 23A8                                      i2l5271 2298  
                                    i2l5263 2268                                      i2l5255 2238  
                                    i2l5247 2210                                      i2l5239 21E2  
                                    i2l5361 2486                                      i2l5353 2462  
                                    i2l5345 2434                                      i2l5329 23DE  
                                    i2l5337 2406                                      i2l5281 22CE  
                                    i2l5273 22A8                                      i2l5257 2246  
                                    i2l5265 226E                                      i2l5249 2220  
                                    i2l4811 35E0                                      i2l5371 24C2  
                                    i2l5363 2494                                      i2l5355 2466  
                                    i2l5347 2442                                      i2l5339 2414  
                                    i2l5291 2304                                      i2l5283 22DC  
                                    i2l5275 22AC                                      i2l5267 227C  
                                    i2l5259 2254                                      i2l4821 35DC  
                                    i2l5365 24A2                                      i2l5357 2474  
                                    i2l5349 2446                                      i2l5293 2312  
                                    i2l5285 22EC                                      i2l5269 228A  
                                    i2l5277 22B2                                      i2l4815 35F0  
                                    i2l5367 24A6                                      i2l5359 2482  
                                    i2l5295 2320                                      i2l5287 22F0  
                                    i2l5279 22C0                                      i2l4825 35D8  
                                    i2l4833 3592                                      i2l5369 24B4  
                                    i2l5297 2330                                      i2l5289 22F6  
                                    i2l4835 3594                                      i2l4843 3578  
                                    i2l4915 35C6                                      i2l5299 2334  
                                    i2l4829 35D4                                      i2l4845 357A  
                                    i2l4853 355E                                      i2l4839 35A8  
                                    i2l4855 3560                                      i2l4863 3544  
                                    i2l4849 358E                                      i2l4865 3546  
                                    i2l4859 3574                                      i2l4869 355A  
                                    _SPBRGH 0FB0                          ?_EUSART_ASYNC_Init 0068  
                          __end_of___xxtofl 2848                               ??_Timer2_Init 0003  
                       ??_EUSART_ASYNC_Init 0069                                   ??___fladd 004A  
                                 ??___fldiv 0031                                   ??___flmul 0018  
                                 ??___fltol 0056                                      _buzzer 007C  
                                    clear_0 334C                                      clear_1 3358  
                     led_initialize@pin_obj 0010                                      isa$std 0001  
                                 ?_CCP1_ISR 0001                                __pdataCOMRAM 0078  
                                 ?_CCP2_ISR 0001                                __mediumconst 0000  
                                    tblptrh 0FF7                                      tblptrl 0FF6  
                                    tblptru 0FF8                           Timer2_Init@retVal 0004  
                 __end_of_EUSART_ASYNC_Init 34B6                           Timer2_Init@timer2 0002  
                                 ?_CCP_Init 0067                __end_of_EUSART_ASYNC_RX_Init 2E9E  
              __end_of_EUSART_ASYNC_TX_Init 303E                 CCP_PWM_Mode_Config@_ccp_obj 005C  
                              ___xxtofl@arg 000C                                ___xxtofl@exp 000B  
                              ___xxtofl@val 0002                                  __accesstop 0080  
                   __end_of__initialization 335E                                   ?_INT0_ISR 0001  
                                 ?_INT1_ISR 0001                                   ?_INT2_ISR 0001  
                             ___rparam_used 0001                                  ___fltol@f1 0052  
              CCP_Interrupt_Config@_ccp_obj 0002                           led_initialize@led 000D  
                         RB5_ISR@RB5_Source 0001                      ??_gpio_pin_write_logic 0004  
                            __pcstackCOMRAM 0001                                __pidataBANK0 34B6  
                                 ?_TMR2_ISR 0001                      ?_CCP_Mode_Timer_Select 0002  
                   EUSART_ASYNC_Init@retVal 0069                         __end_of_Timer2_Init 30CE  
                           ??_EUSART_Rx_ISR 0001                             ??_EUSART_Tx_ISR 0001  
                                ??_CCP1_ISR 0001                                  ??_CCP2_ISR 0001  
                      __end_of_led_turn_off 3232                                  ??_CCP_Init 0068  
                                __pbssBANK0 00BC                       _INT0_InterruptHandler 00D2  
                                ??_INT0_ISR 0001                                  ??_INT1_ISR 0001  
                                ??_INT2_ISR 0001                      _application_initialize 35BC  
                   ??_gpio_pin_toggle_logic 0003            gpio_pin_write_logic@logic_status 0003  
                                ??_TMR2_ISR 0001                           led_turn_off@F3077 0074  
                             led_toggle@led 0007                                     _ADC_ISR 35EC  
                           led_toggle@F3082 0073                           RB7_ISR@RB7_Source 0001  
                                   _RB4_ISR 3590                                     _RB5_ISR 3576  
                                   _RB6_ISR 355C                                     _RB7_ISR 3542  
                                 ?___xxtofl 0002                   _RB6_InterruptHandler_HIGH 00C4  
               __end_of_CCP_PWM_Mode_Config 2694  EUSART_ASYNC_Read_Byte_Blocking@_eusart_obj 0002  
                          ??_led_initialize 000E             EUSART_ASYNC_RX_Init@_eusart_obj 0002  
      EUSART_ASYNC_Read_Byte_Blocking@_data 0003             CCP_Compare_Mode_Set_Value@F3136 00DC  
                                _led_toggle 3232                              _tris_registers 0094  
                  _RB6_InterruptHandler_LOW 00C2                       _mcal_layer_initialize 3528  
                      _ADC_InterruptHandler 0070                                     __Hparam 0000  
                               _Timer2_Init 303E                                     __Lparam 0000  
              __end_of_CCP_Interrupt_Config 3528                         _gpio_pin_initialize 336C  
                                   ___fladd 1500                                     ___fldiv 1DEA  
                                   ___flmul 19C0             CCP_Compare_Mode_Config@_ccp_obj 0004  
                                   ___fltol 2CB2           _EUSART_Baud_Rate_Calculation$3533 0064  
                EUSART_ASYNC_RX_Init@retVal 0003                    _CCP_PWM_Mode_Config$3538 005F  
                  _CCP_PWM_Mode_Config$3539 0063                                __psmallconst 1000  
                      _EUSART_ASYNC_RX_Init 2DB8                        _EUSART_ASYNC_TX_Init 2F7C  
                                   __pcinit 3306                                     __ramtop 1000  
                                   __ptext0 33CE                                     __ptext1 31C4  
                                   __ptext2 3232                                     __ptext3 30CE  
                                   __ptext4 35BC                                     __ptext5 3528  
                                   __ptext6 303E                                     __ptext7 3470  
                                   __ptext8 1002                                     __ptext9 2F7C  
           ??_gpio_pin_direction_initialize 0003                                   _T2CONbits 0FCA  
                                ??___xxtofl 0006                                   _T3CONbits 0FB1  
                   _CCP_Compare_Mode_Config 2848                        ?_gpio_pin_initialize 000A  
                  ?_CCP_Capture_Mode_Config 0004                               _received_data 0077  
                            __pintcode_body 2184                        end_of_initialization 335E  
       gpio_pin_direction_initialize@config 0002                               __Lmediumconst 0000  
                                   int_func 2184         gpio_pin_direction_initialize@retVal 0008  
   __end_of_EUSART_ASYNC_Read_Byte_Blocking 3470           ??_EUSART_ASYNC_Read_Byte_Blocking 0004  
          ?_EUSART_ASYNC_Read_Byte_Blocking 0002             _EUSART_ASYNC_Read_Byte_Blocking 3428  
                       led_turn_off@pin_obj 000C                                   _RCSTAbits 0FAB  
                                   postdec1 0FE5                                     postdec2 0FDD  
                                   postinc0 0FEE                                     postinc2 0FDE  
                     ?_EUSART_ASYNC_RX_Init 0002                       ?_EUSART_ASYNC_TX_Init 0002  
                     _INT1_InterruptHandler 00D0                                   _PORTBbits 0F81  
                         led_toggle@pin_obj 0009                                 ___fladd@grs 0051  
        EUSART_Baud_Rate_Calculation@retVal 005F                               ___xxtofl@sign 000A  
                                 _TRISCbits 0F94                       ??_gpio_pin_initialize 000B  
                               ___fldiv@grs 003C                                 ___fldiv@rem 0035  
                               ?_led_toggle 0007                                 ___flmul@grs 001D  
                    ?_mcal_layer_initialize 0001                                 _CCP1CONbits 0FBD  
                          CCP_Init@_ccp_obj 0067                                 _CCP2CONbits 0FBA  
                                 _TXSTAbits 0FAC                     ??_CCP_Mode_Timer_Select 0003  
                              _led_turn_off 31C4                  CCP_Capture_Mode_Config@ret 0006  
                CCP_Compare_Mode_Config@ret 0006                                 _BAUDCONbits 0FB8  
                             __pidataCOMRAM 35CE                   ??_CCP_Compare_Mode_Config 0005  
                            _timer2_preload 0072             __end_of_CCP_Capture_Mode_Config 2CB2  
                       start_initialization 3306       __end_of_gpio_pin_direction_initialize 2A92  
             _gpio_pin_direction_initialize 297C                        _CCP_Interrupt_Config 34F2  
                   ?_application_initialize 0001        __end_of_EUSART_Baud_Rate_Calculation 1500  
              _EUSART_Baud_Rate_Calculation 1002                   _EUSART_RxInterruptHandler 00D8  
                           led_turn_off@led 000A               __end_of_gpio_pin_toggle_logic 3150  
                _EUSART_FramingErrorHandler 00D6                      ??_EUSART_ASYNC_RX_Init 0003  
                    ??_EUSART_ASYNC_TX_Init 0003                                 __pdataBANK0 0080  
                                  ?_ADC_ISR 0001                __end_of_ecu_layer_initialize 35BC  
                     __end_of_EUSART_Rx_ISR 35F2                                   ___fladd@a 0046  
                                 ___fladd@b 0042                       __end_of_EUSART_Tx_ISR 35E4  
                                 ___fldiv@a 002D                                   ___fldiv@b 0029  
                                  ?_RB4_ISR 0001                                    ?_RB5_ISR 0001  
                                  ?_RB6_ISR 0001                                    ?_RB7_ISR 0001  
                                 ___flmul@a 0014                                   ___flmul@b 0010  
                               __pbssCOMRAM 006C              __end_of_application_initialize 35C6  
                     ?_CCP_Interrupt_Config 0002                       _INT2_InterruptHandler 00CE  
             ?_EUSART_Baud_Rate_Calculation 005C                __end_of_InterruptManagerHigh 24CA  
                              ?_Timer2_Init 0002                                   __pintcode 0008  
                                  ?___fladd 0042                                    ?___fldiv 0029  
                                  ?___flmul 0010                                    ?___fltol 0052  
                EUSART_ASYNC_TX_Init@retVal 0003                   gpio_pin_initialize@config 000A  
                               __smallconst 1000                   _RB4_InterruptHandler_HIGH 00CC  
                                  _CCP1_ISR 35E8                                    _CCP2_ISR 35E4  
                 gpio_pin_initialize@retVal 000C                   _RB7_InterruptHandler_HIGH 00C0  
             CCP_Mode_Timer_Select@_ccp_obj 0002                                    _CCP_Init 2E9E  
                  _RB5_InterruptHandler_LOW 00C6                                    _INT0_ISR 35DC  
                                  _INT1_ISR 35D8                                    _INT2_ISR 35D4  
                         RB4_ISR@RB4_Source 0001                                    _RB4_flag 007B  
                                  _PIE1bits 0F9D                                    _PIE2bits 0FA0  
                                  _RB5_flag 007A                                    _RB6_flag 0079  
                                  _RB7_flag 0078                                    i2u500_40 2194  
                                  i2u500_41 2190                                    i2u501_40 21A2  
                                  i2u501_41 219E                                    i2u510_40 2238  
                                  i2u502_40 21B4                                    i2u510_41 2234  
                                  i2u502_41 21B0                                    i2u511_40 2246  
                                  i2u503_40 21C2                                    i2u511_41 2242  
                                  i2u503_41 21BE                                    i2u520_40 22DC  
                                  i2u512_40 2254                                    i2u504_40 21D4  
                                  i2u520_41 22D8                                    i2u512_41 2250  
                                  i2u504_41 21D0                                    i2u521_40 22EC  
                                  i2u513_40 2264                                    i2u505_40 21E2  
                                  i2u521_41 22E8                                    i2u513_41 2260  
                                  i2u505_41 21DE                                    _PIR1bits 0F9E  
                                  i2u530_40 238C                                    i2u522_40 2304  
                                  i2u514_40 227C                                    i2u506_40 21F4  
                                  i2u530_41 2388                                    i2u522_41 2300  
                                  i2u514_41 2278                                    i2u506_41 21F0  
                                  i2u531_40 239A                                    i2u523_40 2312  
                                  i2u515_40 228A                                    i2u507_40 2202  
                                  i2u531_41 2396                                    i2u523_41 230E  
                                  i2u515_41 2286                                    i2u507_41 21FE  
                                  _PIR2bits 0FA1                                    i2u540_40 2434  
                                  i2u532_40 23A8                                    i2u524_40 2320  
                                  i2u516_40 2298                                    i2u508_40 2210  
                                  i2u540_41 2430                                    i2u532_41 23A4  
                                  i2u524_41 231C                                    i2u516_41 2294  
                                  i2u508_41 220C                                    i2u461_40 35A4  
                                  i2u541_40 2442                                    i2u533_40 23B8  
                                  i2u525_40 2330                                    i2u517_40 22A8  
                                  i2u509_40 2220                                    i2u461_41 35A0  
                                  i2u541_41 243E                                    i2u533_41 23B4  
                                  i2u525_41 232C                                    i2u517_41 22A4  
                                  i2u509_41 221C                                    i2u462_40 358A  
                                  i2u542_40 2454                                    i2u534_40 23D0  
                                  i2u526_40 2348                                    i2u518_40 22C0  
                                  i2u462_41 3586                                    i2u542_41 2450  
                                  i2u534_41 23CC                                    i2u526_41 2344  
                                  i2u518_41 22BC                                    i2u463_40 3570  
                                  i2u543_40 2462                                    i2u535_40 23DE  
                                  i2u527_40 2356                                    i2u519_40 22CE  
                                  i2u463_41 356C                                    i2u543_41 245E  
                                  i2u535_41 23DA                                    i2u527_41 2352  
                                  i2u519_41 22CA                                    i2u464_40 3556  
                                  i2u544_40 2474                                    i2u536_40 23EC  
                                  i2u528_40 2364                                    i2u464_41 3552  
                                  i2u544_41 2470                                    i2u536_41 23E8  
                                  i2u528_41 2360                                    i2u545_40 2482  
                                  i2u537_40 23FC                                    i2u529_40 2374  
                                  i2u545_41 247E                                    i2u537_41 23F8  
                                  i2u529_41 2370                                    i2u546_40 2494  
                                  i2u538_40 2414                                    i2u546_41 2490  
                                  i2u538_41 2410                                    i2u547_40 24A2  
                                  i2u539_40 2422                                    i2u547_41 249E  
                                  i2u539_41 241E                                    i2u548_40 24B4  
                                  i2u548_41 24B0                                    i2u549_40 24C2  
                                  i2u549_41 24BE                                    _TMR2_ISR 35C6  
                                _ADCON0bits 0FC2                                  _ADCON1bits 0FC1  
                                _ADCON2bits 0FC0       EUSART_ASYNC_Read_Byte_Blocking@retVal 0004  
                    ??_CCP_Interrupt_Config 0003                     ??_mcal_layer_initialize 006A  
                               _INTCON2bits 0FF1                                 _INTCON3bits 0FF0  
                                 copy_data0 331A                                   copy_data1 333A  
                              ??_led_toggle 0008                        _ecu_layer_initialize 35AA  
                                  __Hrparam 0000                                    __Lrparam 0000  
            ??_EUSART_Baud_Rate_Calculation 005D               __end_of_CCP_Mode_Timer_Select 3306  
                         RB6_ISR@RB6_Source 0001                       _CCP1_InterruptHandler 006E  
                                  _ccp1_pwm 00AE                 __end_of_gpio_pin_initialize 33CE  
                        __end_of_led_toggle 329C                                    ___xxtofl 2694  
                      _InterruptManagerHigh 0008                                    __ptext10 2DB8  
                                  __ptext11 2E9E                                    __ptext20 2BA6  
                                  __ptext12 24CA                                    __ptext21 329C  
                                  __ptext13 2694                                    __ptext30 3542  
                                  __ptext22 35AA                                    __ptext14 2CB2  
                                  __ptext31 355C                                    __ptext23 3150  
                                  __ptext15 19C0                                    __ptext40 35E8  
                                  __ptext32 3576                                    __ptext24 336C  
                                  __ptext16 1DEA                                    __ptext41 35EC  
                                  __ptext33 3590                                    __ptext25 2A92  
                                  __ptext17 1500                                    __ptext34 35D4  
                                  __ptext26 297C                                    __ptext18 34F2  
                                  __ptext35 35D8                                    __ptext27 3428  
                                  __ptext19 2848                                    __ptext36 35DC  
                                  __ptext37 35E0                                    __ptext29 35C6  
                                  __ptext38 35F0                                    __ptext39 35E4  
                     ?_ecu_layer_initialize 0001                                    _eusart_1 009E  
                                  isa$xinst 0000                                    int$flags 007E  
                            CCP_Init@retVal 0069                                  _INTCONbits 0FF2  
                     ?_InterruptManagerHigh 0001                __end_of_gpio_pin_write_logic 2BA6  
EUSART_Baud_Rate_Calculation@baud_rate_temp 0060                                    intlevel2 0000  
                 _EUSART_TxInterruptHandler 00DA                     _CCP_Capture_Mode_Config 2BA6  
                  ?_CCP_Compare_Mode_Config 0004                       _gpio_pin_toggle_logic 30CE  
                gpio_pin_write_logic@config 0002                         _CCP_PWM_Mode_Config 24CA  
                gpio_pin_write_logic@retVal 0009                EUSART_ASYNC_Init@_eusart_obj 0068  
                            _port_registers 0080                               ___fladd@signs 004E  
                     _CCP2_InterruptHandler 006C                      ??_ecu_layer_initialize 0011  
                      ?_CCP_PWM_Mode_Config 005C                                ___fladd@aexp 004F  
                              ___fladd@bexp 0050                       _TMR2_InterruptHandler 00BC  
   EUSART_Baud_Rate_Calculation@_eusart_obj 005C                              _led_initialize 3150  
